---
triple:          'arm64-apple-darwin'
binary-path:     '/Users/vincentzhang/CPP/Learning/96 deque'
relocations:
  - { offsetInCU: 0x5486, offset: 0x5486, size: 0x8, addend: 0x0, symName: __ZNSt3__124__put_character_sequenceB8ue170006IcNS_11char_traitsIcEEEERNS_13basic_ostreamIT_T0_EES7_PKS4_m, symObjAddr: 0x2F68, symBinAddr: 0x100006108, symSize: 0x1EC }
  - { offsetInCU: 0x6E1E, offset: 0x6E1E, size: 0x8, addend: 0x0, symName: __ZNSt3__16copy_nB8ue170006INS_16__deque_iteratorIiPKiRS2_PKS3_lLl1024EEElNS1_IiPiRiPS8_lLl1024EEEEENS_9enable_ifIXsr37__has_random_access_iterator_categoryIT_EE5valueET1_E4typeESD_T0_SE_, symObjAddr: 0x9A50, symBinAddr: 0x10000CBF0, symSize: 0x88 }
  - { offsetInCU: 0x6F77, offset: 0x6F77, size: 0x8, addend: 0x0, symName: __ZNSt3__16copy_nB8ue170006INS_16__deque_iteratorIiPiRiPS2_lLl1024EEElS5_EENS_9enable_ifIXsr37__has_random_access_iterator_categoryIT_EE5valueET1_E4typeES7_T0_S8_, symObjAddr: 0xB534, symBinAddr: 0x10000E6D4, symSize: 0x88 }
  - { offsetInCU: 0x7030, offset: 0x7030, size: 0x8, addend: 0x0, symName: __ZNSt3__17advanceB8ue170006INS_16__deque_iteratorIiPiRiPS2_lLl1024EEEllvEEvRT_T0_, symObjAddr: 0xD264, symBinAddr: 0x100010404, symSize: 0x38 }
  - { offsetInCU: 0x720B, offset: 0x720B, size: 0x8, addend: 0x0, symName: __ZNSt3__111__introsortINS_17_ClassicAlgPolicyERNS_6__lessIvvEENS_16__deque_iteratorIiPiRiPS6_lLl1024EEELb0EEEvT1_SA_T0_NS_15iterator_traitsISA_E15difference_typeEb, symObjAddr: 0x1094C, symBinAddr: 0x100013AEC, symSize: 0x7C4 }
  - { offsetInCU: 0x733D, offset: 0x733D, size: 0x8, addend: 0x0, symName: __ZNSt3__126__insertion_sort_unguardedB8ue170006INS_17_ClassicAlgPolicyERNS_6__lessIvvEENS_16__deque_iteratorIiPiRiPS6_lLl1024EEEEEvT1_SA_T0_, symObjAddr: 0x1150C, symBinAddr: 0x1000146AC, symSize: 0x19C }
  - { offsetInCU: 0x7431, offset: 0x7431, size: 0x8, addend: 0x0, symName: __ZNSt3__111__sift_downB8ue170006INS_17_ClassicAlgPolicyERNS_6__lessIvvEENS_16__deque_iteratorIiPiRiPS6_lLl1024EEEEEvT1_OT0_NS_15iterator_traitsISA_E15difference_typeESA_, symObjAddr: 0x12E6C, symBinAddr: 0x10001600C, symSize: 0x2FC }
  - { offsetInCU: 0x74E1, offset: 0x74E1, size: 0x8, addend: 0x0, symName: __ZNSt3__117__floyd_sift_downB8ue170006INS_17_ClassicAlgPolicyERNS_6__lessIvvEENS_16__deque_iteratorIiPiRiPS6_lLl1024EEEEET1_SA_OT0_NS_15iterator_traitsISA_E15difference_typeE, symObjAddr: 0x1339C, symBinAddr: 0x10001653C, symSize: 0x158 }
  - { offsetInCU: 0x757A, offset: 0x757A, size: 0x8, addend: 0x0, symName: __ZNSt3__131__partition_with_equals_on_leftB8ue170006INS_17_ClassicAlgPolicyENS_16__deque_iteratorIiPiRiPS3_lLl1024EEERNS_6__lessIvvEEEET0_SA_SA_T1_, symObjAddr: 0x119F8, symBinAddr: 0x100014B98, symSize: 0x2A4 }
  - { offsetInCU: 0x7639, offset: 0x7639, size: 0x8, addend: 0x0, symName: __ZNSt3__118__bitset_partitionB8ue170006INS_17_ClassicAlgPolicyENS_16__deque_iteratorIiPiRiPS3_lLl1024EEERNS_6__lessIvvEEEENS_4pairIT0_bEESB_SB_T1_, symObjAddr: 0x11C9C, symBinAddr: 0x100014E3C, symSize: 0x3E4 }
  - { offsetInCU: 0x7738, offset: 0x7738, size: 0x8, addend: 0x0, symName: __ZNSt3__124__swap_bitmap_pos_withinB8ue170006INS_17_ClassicAlgPolicyENS_16__deque_iteratorIiPiRiPS3_lLl1024EEEEEvRT0_S8_RyS9_, symObjAddr: 0x13CC8, symBinAddr: 0x100016E68, symSize: 0x1CC }
  - { offsetInCU: 0x7805, offset: 0x7805, size: 0x8, addend: 0x0, symName: __ZNSt3__132__partition_with_equals_on_rightB8ue170006INS_17_ClassicAlgPolicyENS_16__deque_iteratorIiPiRiPS3_lLl1024EEERNS_6__lessIvvEEEENS_4pairIT0_bEESB_SB_T1_, symObjAddr: 0x12080, symBinAddr: 0x100015220, symSize: 0x284 }
  - { offsetInCU: 0x78D3, offset: 0x78D3, size: 0x8, addend: 0x0, symName: __ZNSt3__127__insertion_sort_incompleteB8ue170006INS_17_ClassicAlgPolicyERNS_6__lessIvvEENS_16__deque_iteratorIiPiRiPS6_lLl1024EEEEEbT1_SA_T0_, symObjAddr: 0x12304, symBinAddr: 0x1000154A4, symSize: 0x4A4 }
  - { offsetInCU: 0x84CB, offset: 0x84CB, size: 0x8, addend: 0x0, symName: __ZNSt3__1neB8ue170006ERKNS_16__deque_iteratorIiPKiRS1_PKS2_lLl1024EEES8_, symObjAddr: 0x164, symBinAddr: 0x100003304, symSize: 0x34 }
  - { offsetInCU: 0x8508, offset: 0x8508, size: 0x8, addend: 0x0, symName: __ZNSt3__1lsB8ue170006INS_11char_traitsIcEEEERNS_13basic_ostreamIcT_EES6_PKc, symObjAddr: 0x254, symBinAddr: 0x1000033F4, symSize: 0x48 }
  - { offsetInCU: 0x854E, offset: 0x854E, size: 0x8, addend: 0x0, symName: __ZNSt3__14endlB8ue170006IcNS_11char_traitsIcEEEERNS_13basic_ostreamIT_T0_EES7_, symObjAddr: 0x318, symBinAddr: 0x1000034B8, symSize: 0x58 }
  - { offsetInCU: 0x85AA, offset: 0x85AA, size: 0x8, addend: 0x0, symName: __ZNSt3__14sortB8ue170006INS_16__deque_iteratorIiPiRiPS2_lLl1024EEEEEvT_S6_, symObjAddr: 0x2D9C, symBinAddr: 0x100005F3C, symSize: 0x4C }
  - { offsetInCU: 0x85EC, offset: 0x85EC, size: 0x8, addend: 0x0, symName: __ZNSt3__1eqB8ue170006ERKNS_16__deque_iteratorIiPKiRS1_PKS2_lLl1024EEES8_, symObjAddr: 0x2EC8, symBinAddr: 0x100006068, symSize: 0x30 }
  - { offsetInCU: 0x8629, offset: 0x8629, size: 0x8, addend: 0x0, symName: __ZNSt3__116__pad_and_outputB8ue170006IcNS_11char_traitsIcEEEENS_19ostreambuf_iteratorIT_T0_EES6_PKS4_S8_S8_RNS_8ios_baseES4_, symObjAddr: 0x31A4, symBinAddr: 0x100006344, symSize: 0x240 }
  - { offsetInCU: 0x86F8, offset: 0x86F8, size: 0x8, addend: 0x0, symName: __ZNSt3__112__to_addressB8ue170006IKcEEPT_S3_, symObjAddr: 0x370C, symBinAddr: 0x1000068AC, symSize: 0x14 }
  - { offsetInCU: 0x8760, offset: 0x8760, size: 0x8, addend: 0x0, symName: __ZNSt3__19use_facetB8ue170006INS_5ctypeIcEEEERKT_RKNS_6localeE, symObjAddr: 0x398C, symBinAddr: 0x100006B2C, symSize: 0x2C }
  - { offsetInCU: 0x8C2D, offset: 0x8C2D, size: 0x8, addend: 0x0, symName: __ZNSt3__118__constexpr_strlenB8ue170006EPKc, symObjAddr: 0x3A24, symBinAddr: 0x100006BC4, symSize: 0x24 }
  - { offsetInCU: 0x8C59, offset: 0x8C59, size: 0x8, addend: 0x0, symName: __ZNSt3__112__to_addressB8ue170006IiEEPT_S2_, symObjAddr: 0x43A0, symBinAddr: 0x100007540, symSize: 0x14 }
  - { offsetInCU: 0x8C8E, offset: 0x8C8E, size: 0x8, addend: 0x0, symName: __ZNSt3__1neB8ue170006ERKNS_16__deque_iteratorIiPiRiPS1_lLl1024EEES6_, symObjAddr: 0x47A0, symBinAddr: 0x100007940, symSize: 0x34 }
  - { offsetInCU: 0x8CCB, offset: 0x8CCB, size: 0x8, addend: 0x0, symName: __ZNSt3__1eqB8ue170006ERKNS_16__deque_iteratorIiPiRiPS1_lLl1024EEES6_, symObjAddr: 0x48F4, symBinAddr: 0x100007A94, symSize: 0x30 }
  - { offsetInCU: 0x8D08, offset: 0x8D08, size: 0x8, addend: 0x0, symName: __ZNSt3__119__libcpp_deallocateB8ue170006EPvmm, symObjAddr: 0x4AEC, symBinAddr: 0x100007C8C, symSize: 0x30 }
  - { offsetInCU: 0x8D50, offset: 0x8D50, size: 0x8, addend: 0x0, symName: __ZNSt3__127__do_deallocate_handle_sizeB8ue170006IJEEEvPvmDpT_, symObjAddr: 0x4B1C, symBinAddr: 0x100007CBC, symSize: 0x28 }
  - { offsetInCU: 0x8D8E, offset: 0x8D8E, size: 0x8, addend: 0x0, symName: __ZNSt3__124__libcpp_operator_deleteB8ue170006IJPvEEEvDpT_, symObjAddr: 0x4B44, symBinAddr: 0x100007CE4, symSize: 0x24 }
  - { offsetInCU: 0x8DC3, offset: 0x8DC3, size: 0x8, addend: 0x0, symName: __ZNSt3__112__to_addressB8ue170006IPiEEPT_S3_, symObjAddr: 0x4DC8, symBinAddr: 0x100007F68, symSize: 0x14 }
  - { offsetInCU: 0x8DF8, offset: 0x8DF8, size: 0x8, addend: 0x0, symName: __ZNSt3__13maxB8ue170006ImEERKT_S3_S3_, symObjAddr: 0x5B18, symBinAddr: 0x100008CB8, symSize: 0x2C }
  - { offsetInCU: 0x9294, offset: 0x9294, size: 0x8, addend: 0x0, symName: __ZNSt3__14swapB8ue170006IPPiEENS_9enable_ifIXaasr21is_move_constructibleIT_EE5valuesr18is_move_assignableIS4_EE5valueEvE4typeERS4_S7_, symObjAddr: 0x6128, symBinAddr: 0x1000092C8, symSize: 0x3C }
  - { offsetInCU: 0x92E5, offset: 0x92E5, size: 0x8, addend: 0x0, symName: __ZNSt3__14moveB8ue170006IPPiS2_EET0_T_S4_S3_, symObjAddr: 0x620C, symBinAddr: 0x1000093AC, symSize: 0x40 }
  - { offsetInCU: 0x933F, offset: 0x933F, size: 0x8, addend: 0x0, symName: __ZNSt3__16__moveB8ue170006INS_17_ClassicAlgPolicyEPPiS3_S3_EENS_4pairIT0_T2_EES5_T1_S6_, symObjAddr: 0x6314, symBinAddr: 0x1000094B4, symSize: 0x44 }
  - { offsetInCU: 0x93AB, offset: 0x93AB, size: 0x8, addend: 0x0, symName: __ZNSt3__123__dispatch_copy_or_moveB8ue170006INS_17_ClassicAlgPolicyENS_11__move_loopIS1_EENS_14__move_trivialEPPiS6_S6_EENS_4pairIT2_T4_EES8_T3_S9_, symObjAddr: 0x6358, symBinAddr: 0x1000094F8, symSize: 0x44 }
  - { offsetInCU: 0x9429, offset: 0x9429, size: 0x8, addend: 0x0, symName: __ZNSt3__121__unwrap_and_dispatchB8ue170006INS_10__overloadINS_11__move_loopINS_17_ClassicAlgPolicyEEENS_14__move_trivialEEEPPiS8_S8_Li0EEENS_4pairIT0_T2_EESA_T1_SB_, symObjAddr: 0x639C, symBinAddr: 0x10000953C, symSize: 0xB4 }
  - { offsetInCU: 0x94B7, offset: 0x94B7, size: 0x8, addend: 0x0, symName: __ZNSt3__114__unwrap_rangeB8ue170006IPPiS2_EENS_4pairIT0_S4_EET_S6_, symObjAddr: 0x6450, symBinAddr: 0x1000095F0, symSize: 0x60 }
  - { offsetInCU: 0x96B7, offset: 0x96B7, size: 0x8, addend: 0x0, symName: __ZNSt3__113__unwrap_iterB8ue170006IPPiNS_18__unwrap_iter_implIS2_Lb1EEELi0EEEDTclsrT0_8__unwrapclsr3stdE7declvalIT_EEEES6_, symObjAddr: 0x64F8, symBinAddr: 0x100009698, symSize: 0x24 }
  - { offsetInCU: 0x96FB, offset: 0x96FB, size: 0x8, addend: 0x0, symName: __ZNSt3__19make_pairB8ue170006IPPiS2_EENS_4pairINS_18__unwrap_ref_decayIT_E4typeENS4_IT0_E4typeEEEOS5_OS8_, symObjAddr: 0x651C, symBinAddr: 0x1000096BC, symSize: 0x38 }
  - { offsetInCU: 0x974A, offset: 0x974A, size: 0x8, addend: 0x0, symName: __ZNSt3__114__rewrap_rangeB8ue170006IPPiS2_EET_S3_T0_, symObjAddr: 0x6554, symBinAddr: 0x1000096F4, symSize: 0x2C }
  - { offsetInCU: 0x9796, offset: 0x9796, size: 0x8, addend: 0x0, symName: __ZNSt3__113__rewrap_iterB8ue170006IPPiS2_NS_18__unwrap_iter_implIS2_Lb1EEEEET_S5_T0_, symObjAddr: 0x6580, symBinAddr: 0x100009720, symSize: 0x3C }
  - { offsetInCU: 0x97EB, offset: 0x97EB, size: 0x8, addend: 0x0, symName: __ZNSt3__119__copy_trivial_implB8ue170006IPiS1_EENS_4pairIPT_PT0_EES4_S4_S6_, symObjAddr: 0x65BC, symBinAddr: 0x10000975C, symSize: 0x80 }
  - { offsetInCU: 0x9853, offset: 0x9853, size: 0x8, addend: 0x0, symName: __ZNSt3__119__constexpr_memmoveB8ue170006IPiS1_Li0EEEPT_S3_PT0_NS_15__element_countE, symObjAddr: 0x663C, symBinAddr: 0x1000097DC, symSize: 0x64 }
  - { offsetInCU: 0x98C1, offset: 0x98C1, size: 0x8, addend: 0x0, symName: __ZNSt3__19make_pairB8ue170006IRPPiS2_EENS_4pairINS_18__unwrap_ref_decayIT_E4typeENS5_IT0_E4typeEEEOS6_OS9_, symObjAddr: 0x66A0, symBinAddr: 0x100009840, symSize: 0x38 }
  - { offsetInCU: 0x9963, offset: 0x9963, size: 0x8, addend: 0x0, symName: __ZNSt3__18distanceB8ue170006INS_13move_iteratorIPPiEEEENS_15iterator_traitsIT_E15difference_typeES6_S6_, symObjAddr: 0x6908, symBinAddr: 0x100009AA8, symSize: 0x3C }
  - { offsetInCU: 0x99A6, offset: 0x99A6, size: 0x8, addend: 0x0, symName: __ZNSt3__110__distanceB8ue170006INS_13move_iteratorIPPiEEEENS_15iterator_traitsIT_E15difference_typeES6_S6_NS_26random_access_iterator_tagE, symObjAddr: 0x6B0C, symBinAddr: 0x100009CAC, symSize: 0x30 }
  - { offsetInCU: 0x99F3, offset: 0x99F3, size: 0x8, addend: 0x0, symName: __ZNSt3__1miB8ue170006IPPiS2_EEDTmicldtfp_4baseEcldtfp0_4baseEERKNS_13move_iteratorIT_EERKNS4_IT0_EE, symObjAddr: 0x6B3C, symBinAddr: 0x100009CDC, symSize: 0x48 }
  - { offsetInCU: 0x9A42, offset: 0x9A42, size: 0x8, addend: 0x0, symName: __ZNSt3__117__libcpp_allocateB8ue170006Emm, symObjAddr: 0x6C94, symBinAddr: 0x100009E34, symSize: 0x28 }
  - { offsetInCU: 0x9A7F, offset: 0x9A7F, size: 0x8, addend: 0x0, symName: __ZNSt3__121__libcpp_operator_newB8ue170006IJmEEEPvDpT_, symObjAddr: 0x6CD0, symBinAddr: 0x100009E70, symSize: 0x24 }
  - { offsetInCU: 0x9AB8, offset: 0x9AB8, size: 0x8, addend: 0x0, symName: __ZNSt3__113move_backwardB8ue170006IPPiS2_EET0_T_S4_S3_, symObjAddr: 0x6CF4, symBinAddr: 0x100009E94, symSize: 0x40 }
  - { offsetInCU: 0x9B12, offset: 0x9B12, size: 0x8, addend: 0x0, symName: __ZNSt3__115__move_backwardB8ue170006INS_17_ClassicAlgPolicyEPPiS3_S3_EENS_4pairIT0_T2_EES5_T1_S6_, symObjAddr: 0x6D34, symBinAddr: 0x100009ED4, symSize: 0x44 }
  - { offsetInCU: 0x9B7E, offset: 0x9B7E, size: 0x8, addend: 0x0, symName: __ZNSt3__123__dispatch_copy_or_moveB8ue170006INS_17_ClassicAlgPolicyENS_20__move_backward_loopIS1_EENS_23__move_backward_trivialEPPiS6_S6_EENS_4pairIT2_T4_EES8_T3_S9_, symObjAddr: 0x6D78, symBinAddr: 0x100009F18, symSize: 0x44 }
  - { offsetInCU: 0x9BFC, offset: 0x9BFC, size: 0x8, addend: 0x0, symName: __ZNSt3__121__unwrap_and_dispatchB8ue170006INS_10__overloadINS_20__move_backward_loopINS_17_ClassicAlgPolicyEEENS_23__move_backward_trivialEEEPPiS8_S8_Li0EEENS_4pairIT0_T2_EESA_T1_SB_, symObjAddr: 0x6DBC, symBinAddr: 0x100009F5C, symSize: 0xB4 }
  - { offsetInCU: 0x9D0C, offset: 0x9D0C, size: 0x8, addend: 0x0, symName: __ZNSt3__128__copy_backward_trivial_implB8ue170006IPiS1_EENS_4pairIPT_PT0_EES4_S4_S6_, symObjAddr: 0x6EB8, symBinAddr: 0x10000A058, symSize: 0x90 }
  - { offsetInCU: 0x9D74, offset: 0x9D74, size: 0x8, addend: 0x0, symName: __ZNSt3__19make_pairB8ue170006IRPPiS3_EENS_4pairINS_18__unwrap_ref_decayIT_E4typeENS5_IT0_E4typeEEEOS6_OS9_, symObjAddr: 0x6F48, symBinAddr: 0x10000A0E8, symSize: 0x38 }
  - { offsetInCU: 0x9DC3, offset: 0x9DC3, size: 0x8, addend: 0x0, symName: __ZNSt3__13maxB8ue170006ImNS_6__lessIvvEEEERKT_S5_S5_T0_, symObjAddr: 0x6FF0, symBinAddr: 0x10000A190, symSize: 0x54 }
  - { offsetInCU: 0x9EC4, offset: 0x9EC4, size: 0x8, addend: 0x0, symName: __ZNSt3__119__allocate_at_leastB8ue170006INS_9allocatorIPiEEEENS_19__allocation_resultINS_16allocator_traitsIT_E7pointerEEERS6_m, symObjAddr: 0x7188, symBinAddr: 0x10000A328, symSize: 0x40 }
  - { offsetInCU: 0x9F07, offset: 0x9F07, size: 0x8, addend: 0x0, symName: __ZNSt3__18distanceB8ue170006INS_16__deque_iteratorIiPiRiPS2_lLl1024EEEEENS_15iterator_traitsIT_E15difference_typeES7_S7_, symObjAddr: 0x7BA8, symBinAddr: 0x10000AD48, symSize: 0x4C }
  - { offsetInCU: 0x9F4A, offset: 0x9F4A, size: 0x8, addend: 0x0, symName: __ZNSt3__1neB8ue170006ERKNS_5dequeIiNS_9allocatorIiEEE13__deque_rangeES6_, symObjAddr: 0x8330, symBinAddr: 0x10000B4D0, symSize: 0x34 }
  - { offsetInCU: 0x9F87, offset: 0x9F87, size: 0x8, addend: 0x0, symName: __ZNSt3__13minB8ue170006ImEERKT_S3_S3_, symObjAddr: 0x8520, symBinAddr: 0x10000B6C0, symSize: 0x2C }
  - { offsetInCU: 0x9FCA, offset: 0x9FCA, size: 0x8, addend: 0x0, symName: __ZNSt3__13minB8ue170006ImNS_6__lessIvvEEEERKT_S5_S5_T0_, symObjAddr: 0x87F8, symBinAddr: 0x10000B998, symSize: 0x54 }
  - { offsetInCU: 0xA024, offset: 0xA024, size: 0x8, addend: 0x0, symName: __ZNSt3__1eqB8ue170006ERKNS_5dequeIiNS_9allocatorIiEEE13__deque_rangeES6_, symObjAddr: 0x8990, symBinAddr: 0x10000BB30, symSize: 0x30 }
  - { offsetInCU: 0xA061, offset: 0xA061, size: 0x8, addend: 0x0, symName: __ZNSt3__110__distanceB8ue170006INS_16__deque_iteratorIiPiRiPS2_lLl1024EEEEENS_15iterator_traitsIT_E15difference_typeES7_S7_NS_26random_access_iterator_tagE, symObjAddr: 0x8AF4, symBinAddr: 0x10000BC94, symSize: 0x38 }
  - { offsetInCU: 0xA0AE, offset: 0xA0AE, size: 0x8, addend: 0x0, symName: __ZNSt3__1miB8ue170006ERKNS_16__deque_iteratorIiPiRiPS1_lLl1024EEES6_, symObjAddr: 0x8B2C, symBinAddr: 0x10000BCCC, symSize: 0xA8 }
  - { offsetInCU: 0xA0EB, offset: 0xA0EB, size: 0x8, addend: 0x0, symName: __ZNSt3__18distanceB8ue170006INS_16__deque_iteratorIiPKiRS2_PKS3_lLl1024EEEEENS_15iterator_traitsIT_E15difference_typeES9_S9_, symObjAddr: 0x94D8, symBinAddr: 0x10000C678, symSize: 0x4C }
  - { offsetInCU: 0xA12E, offset: 0xA12E, size: 0x8, addend: 0x0, symName: __ZNSt3__110__distanceB8ue170006INS_16__deque_iteratorIiPKiRS2_PKS3_lLl1024EEEEENS_15iterator_traitsIT_E15difference_typeES9_S9_NS_26random_access_iterator_tagE, symObjAddr: 0x9524, symBinAddr: 0x10000C6C4, symSize: 0x38 }
  - { offsetInCU: 0xA17B, offset: 0xA17B, size: 0x8, addend: 0x0, symName: __ZNSt3__1miB8ue170006ERKNS_16__deque_iteratorIiPKiRS1_PKS2_lLl1024EEES8_, symObjAddr: 0x955C, symBinAddr: 0x10000C6FC, symSize: 0xA8 }
  - { offsetInCU: 0xA1B8, offset: 0xA1B8, size: 0x8, addend: 0x0, symName: __ZNSt3__14copyB8ue170006INS_16__deque_iteratorIiPKiRS2_PKS3_lLl1024EEENS1_IiPiRiPS8_lLl1024EEEEET0_T_SD_SC_, symObjAddr: 0x9844, symBinAddr: 0x10000C9E4, symSize: 0x78 }
  - { offsetInCU: 0xA212, offset: 0xA212, size: 0x8, addend: 0x0, symName: __ZNSt3__16__copyB8ue170006INS_17_ClassicAlgPolicyENS_16__deque_iteratorIiPKiRS3_PKS4_lLl1024EEES8_NS2_IiPiRiPS9_lLl1024EEEEENS_4pairIT0_T2_EESE_T1_SF_, symObjAddr: 0x9BE8, symBinAddr: 0x10000CD88, symSize: 0x64 }
  - { offsetInCU: 0xA27E, offset: 0xA27E, size: 0x8, addend: 0x0, symName: __ZNSt3__123__dispatch_copy_or_moveB8ue170006INS_17_ClassicAlgPolicyENS_11__copy_loopIS1_EENS_14__copy_trivialENS_16__deque_iteratorIiPKiRS6_PKS7_lLl1024EEESB_NS5_IiPiRiPSC_lLl1024EEEEENS_4pairIT2_T4_EESH_T3_SI_, symObjAddr: 0x9C4C, symBinAddr: 0x10000CDEC, symSize: 0x64 }
  - { offsetInCU: 0xA2FC, offset: 0xA2FC, size: 0x8, addend: 0x0, symName: __ZNSt3__121__unwrap_and_dispatchB8ue170006INS_10__overloadINS_11__copy_loopINS_17_ClassicAlgPolicyEEENS_14__copy_trivialEEENS_16__deque_iteratorIiPKiRS8_PKS9_lLl1024EEESD_NS7_IiPiRiPSE_lLl1024EEELi0EEENS_4pairIT0_T2_EESJ_T1_SK_, symObjAddr: 0x9CB0, symBinAddr: 0x10000CE50, symSize: 0x12C }
  - { offsetInCU: 0xA38C, offset: 0xA38C, size: 0x8, addend: 0x0, symName: __ZNSt3__114__unwrap_rangeB8ue170006INS_16__deque_iteratorIiPKiRS2_PKS3_lLl1024EEES7_EENS_4pairIT0_S9_EET_SB_, symObjAddr: 0x9DDC, symBinAddr: 0x10000CF7C, symSize: 0x84 }
  - { offsetInCU: 0xA4DB, offset: 0xA4DB, size: 0x8, addend: 0x0, symName: __ZNSt3__113__unwrap_iterB8ue170006INS_16__deque_iteratorIiPiRiPS2_lLl1024EEENS_18__unwrap_iter_implIS5_Lb0EEELi0EEEDTclsrT0_8__unwrapclsr3stdE7declvalIT_EEEES9_, symObjAddr: 0x9EE8, symBinAddr: 0x10000D088, symSize: 0x44 }
  - { offsetInCU: 0xA51F, offset: 0xA51F, size: 0x8, addend: 0x0, symName: __ZNSt3__19make_pairB8ue170006INS_16__deque_iteratorIiPKiRS2_PKS3_lLl1024EEENS1_IiPiRiPS8_lLl1024EEEEENS_4pairINS_18__unwrap_ref_decayIT_E4typeENSD_IT0_E4typeEEEOSE_OSH_, symObjAddr: 0x9F2C, symBinAddr: 0x10000D0CC, symSize: 0x38 }
  - { offsetInCU: 0xA56E, offset: 0xA56E, size: 0x8, addend: 0x0, symName: __ZNSt3__114__rewrap_rangeB8ue170006INS_16__deque_iteratorIiPKiRS2_PKS3_lLl1024EEES7_EET_S8_T0_, symObjAddr: 0x9F64, symBinAddr: 0x10000D104, symSize: 0x5C }
  - { offsetInCU: 0xA5BA, offset: 0xA5BA, size: 0x8, addend: 0x0, symName: __ZNSt3__113__rewrap_iterB8ue170006INS_16__deque_iteratorIiPiRiPS2_lLl1024EEES5_NS_18__unwrap_iter_implIS5_Lb0EEEEET_S8_T0_, symObjAddr: 0x9FC0, symBinAddr: 0x10000D160, symSize: 0x74 }
  - { offsetInCU: 0xA60F, offset: 0xA60F, size: 0x8, addend: 0x0, symName: __ZNSt3__19make_pairB8ue170006INS_16__deque_iteratorIiPKiRS2_PKS3_lLl1024EEES7_EENS_4pairINS_18__unwrap_ref_decayIT_E4typeENS9_IT0_E4typeEEEOSA_OSD_, symObjAddr: 0xA034, symBinAddr: 0x10000D1D4, symSize: 0x38 }
  - { offsetInCU: 0xA65E, offset: 0xA65E, size: 0x8, addend: 0x0, symName: __ZNSt3__113__unwrap_iterB8ue170006INS_16__deque_iteratorIiPKiRS2_PKS3_lLl1024EEENS_18__unwrap_iter_implIS7_Lb0EEELi0EEEDTclsrT0_8__unwrapclsr3stdE7declvalIT_EEEESB_, symObjAddr: 0xA06C, symBinAddr: 0x10000D20C, symSize: 0x44 }
  - { offsetInCU: 0xA7BE, offset: 0xA7BE, size: 0x8, addend: 0x0, symName: __ZNSt3__118__for_each_segmentB8ue170006INS_16__deque_iteratorIiPKiRS2_PKS3_lLl1024EEENS_11__copy_loopINS_17_ClassicAlgPolicyEE12_CopySegmentIS7_NS1_IiPiRiPSC_lLl1024EEEEEEEvT_SH_T0_, symObjAddr: 0xA144, symBinAddr: 0x10000D2E4, symSize: 0x174 }
  - { offsetInCU: 0xA831, offset: 0xA831, size: 0x8, addend: 0x0, symName: __ZNSt3__19make_pairB8ue170006IRNS_16__deque_iteratorIiPKiRS2_PKS3_lLl1024EEENS1_IiPiRiPS9_lLl1024EEEEENS_4pairINS_18__unwrap_ref_decayIT_E4typeENSE_IT0_E4typeEEEOSF_OSI_, symObjAddr: 0xA2EC, symBinAddr: 0x10000D48C, symSize: 0x38 }
  - { offsetInCU: 0xA880, offset: 0xA880, size: 0x8, addend: 0x0, symName: __ZNSt3__16__copyB8ue170006INS_17_ClassicAlgPolicyEPKiS3_NS_16__deque_iteratorIiPiRiPS5_lLl1024EEEEENS_4pairIT0_T2_EESA_T1_SB_, symObjAddr: 0xA3F0, symBinAddr: 0x10000D590, symSize: 0x44 }
  - { offsetInCU: 0xA8E8, offset: 0xA8E8, size: 0x8, addend: 0x0, symName: __ZNSt3__123__dispatch_copy_or_moveB8ue170006INS_17_ClassicAlgPolicyENS_11__copy_loopIS1_EENS_14__copy_trivialEPKiS6_NS_16__deque_iteratorIiPiRiPS8_lLl1024EEEEENS_4pairIT2_T4_EESD_T3_SE_, symObjAddr: 0xA434, symBinAddr: 0x10000D5D4, symSize: 0x44 }
  - { offsetInCU: 0xA966, offset: 0xA966, size: 0x8, addend: 0x0, symName: __ZNSt3__121__unwrap_and_dispatchB8ue170006INS_10__overloadINS_11__copy_loopINS_17_ClassicAlgPolicyEEENS_14__copy_trivialEEEPKiS8_NS_16__deque_iteratorIiPiRiPSA_lLl1024EEELi0EEENS_4pairIT0_T2_EESF_T1_SG_, symObjAddr: 0xA478, symBinAddr: 0x10000D618, symSize: 0xF0 }
  - { offsetInCU: 0xA9F5, offset: 0xA9F5, size: 0x8, addend: 0x0, symName: __ZNSt3__114__unwrap_rangeB8ue170006IPKiS2_EENS_4pairIT0_S4_EET_S6_, symObjAddr: 0xA568, symBinAddr: 0x10000D708, symSize: 0x60 }
  - { offsetInCU: 0xAB15, offset: 0xAB15, size: 0x8, addend: 0x0, symName: __ZNSt3__19make_pairB8ue170006IPKiNS_16__deque_iteratorIiPiRiPS4_lLl1024EEEEENS_4pairINS_18__unwrap_ref_decayIT_E4typeENS9_IT0_E4typeEEEOSA_OSD_, symObjAddr: 0xA72C, symBinAddr: 0x10000D8CC, symSize: 0x38 }
  - { offsetInCU: 0xAB64, offset: 0xAB64, size: 0x8, addend: 0x0, symName: __ZNSt3__114__rewrap_rangeB8ue170006IPKiS2_EET_S3_T0_, symObjAddr: 0xA764, symBinAddr: 0x10000D904, symSize: 0x2C }
  - { offsetInCU: 0xABB0, offset: 0xABB0, size: 0x8, addend: 0x0, symName: __ZNSt3__19make_pairB8ue170006IPKiS2_EENS_4pairINS_18__unwrap_ref_decayIT_E4typeENS4_IT0_E4typeEEEOS5_OS8_, symObjAddr: 0xA790, symBinAddr: 0x10000D930, symSize: 0x38 }
  - { offsetInCU: 0xABFF, offset: 0xABFF, size: 0x8, addend: 0x0, symName: __ZNSt3__113__unwrap_iterB8ue170006IPKiNS_18__unwrap_iter_implIS2_Lb1EEELi0EEEDTclsrT0_8__unwrapclsr3stdE7declvalIT_EEEES6_, symObjAddr: 0xA7C8, symBinAddr: 0x10000D968, symSize: 0x24 }
  - { offsetInCU: 0xAD6A, offset: 0xAD6A, size: 0x8, addend: 0x0, symName: __ZNSt3__112__to_addressB8ue170006IKiEEPT_S3_, symObjAddr: 0xA880, symBinAddr: 0x10000DA20, symSize: 0x14 }
  - { offsetInCU: 0xAD9F, offset: 0xAD9F, size: 0x8, addend: 0x0, symName: __ZNSt3__13minB8ue170006IlEERKT_S3_S3_, symObjAddr: 0xA8E0, symBinAddr: 0x10000DA80, symSize: 0x2C }
  - { offsetInCU: 0xADE2, offset: 0xADE2, size: 0x8, addend: 0x0, symName: __ZNSt3__16__copyB8ue170006INS_17_ClassicAlgPolicyEPKiS3_PiEENS_4pairIT0_T2_EES6_T1_S7_, symObjAddr: 0xA90C, symBinAddr: 0x10000DAAC, symSize: 0x44 }
  - { offsetInCU: 0xAE4A, offset: 0xAE4A, size: 0x8, addend: 0x0, symName: __ZNSt3__13minB8ue170006IlNS_6__lessIvvEEEERKT_S5_S5_T0_, symObjAddr: 0xA9EC, symBinAddr: 0x10000DB8C, symSize: 0x54 }
  - { offsetInCU: 0xAEA4, offset: 0xAEA4, size: 0x8, addend: 0x0, symName: __ZNSt3__123__dispatch_copy_or_moveB8ue170006INS_17_ClassicAlgPolicyENS_11__copy_loopIS1_EENS_14__copy_trivialEPKiS6_PiEENS_4pairIT2_T4_EES9_T3_SA_, symObjAddr: 0xAA74, symBinAddr: 0x10000DC14, symSize: 0x44 }
  - { offsetInCU: 0xAF22, offset: 0xAF22, size: 0x8, addend: 0x0, symName: __ZNSt3__121__unwrap_and_dispatchB8ue170006INS_10__overloadINS_11__copy_loopINS_17_ClassicAlgPolicyEEENS_14__copy_trivialEEEPKiS8_PiLi0EEENS_4pairIT0_T2_EESB_T1_SC_, symObjAddr: 0xAAB8, symBinAddr: 0x10000DC58, symSize: 0xB4 }
  - { offsetInCU: 0xB135, offset: 0xB135, size: 0x8, addend: 0x0, symName: __ZNSt3__113__unwrap_iterB8ue170006IPiNS_18__unwrap_iter_implIS1_Lb1EEELi0EEEDTclsrT0_8__unwrapclsr3stdE7declvalIT_EEEES5_, symObjAddr: 0xABB4, symBinAddr: 0x10000DD54, symSize: 0x24 }
  - { offsetInCU: 0xB179, offset: 0xB179, size: 0x8, addend: 0x0, symName: __ZNSt3__19make_pairB8ue170006IPKiPiEENS_4pairINS_18__unwrap_ref_decayIT_E4typeENS5_IT0_E4typeEEEOS6_OS9_, symObjAddr: 0xABD8, symBinAddr: 0x10000DD78, symSize: 0x38 }
  - { offsetInCU: 0xB1C8, offset: 0xB1C8, size: 0x8, addend: 0x0, symName: __ZNSt3__113__rewrap_iterB8ue170006IPiS1_NS_18__unwrap_iter_implIS1_Lb1EEEEET_S4_T0_, symObjAddr: 0xAC10, symBinAddr: 0x10000DDB0, symSize: 0x3C }
  - { offsetInCU: 0xB21D, offset: 0xB21D, size: 0x8, addend: 0x0, symName: __ZNSt3__119__copy_trivial_implB8ue170006IKiiEENS_4pairIPT_PT0_EES4_S4_S6_, symObjAddr: 0xAC4C, symBinAddr: 0x10000DDEC, symSize: 0x80 }
  - { offsetInCU: 0xB285, offset: 0xB285, size: 0x8, addend: 0x0, symName: __ZNSt3__119__constexpr_memmoveB8ue170006IiKiLi0EEEPT_S3_PT0_NS_15__element_countE, symObjAddr: 0xACCC, symBinAddr: 0x10000DE6C, symSize: 0x64 }
  - { offsetInCU: 0xB2F3, offset: 0xB2F3, size: 0x8, addend: 0x0, symName: __ZNSt3__19make_pairB8ue170006IRPKiPiEENS_4pairINS_18__unwrap_ref_decayIT_E4typeENS6_IT0_E4typeEEEOS7_OSA_, symObjAddr: 0xAD30, symBinAddr: 0x10000DED0, symSize: 0x38 }
  - { offsetInCU: 0xB395, offset: 0xB395, size: 0x8, addend: 0x0, symName: __ZNSt3__113__rewrap_iterB8ue170006IPKiS2_NS_18__unwrap_iter_implIS2_Lb1EEEEET_S5_T0_, symObjAddr: 0xAF2C, symBinAddr: 0x10000E0CC, symSize: 0x3C }
  - { offsetInCU: 0xB432, offset: 0xB432, size: 0x8, addend: 0x0, symName: __ZNSt3__113__rewrap_iterB8ue170006INS_16__deque_iteratorIiPKiRS2_PKS3_lLl1024EEES7_NS_18__unwrap_iter_implIS7_Lb0EEEEET_SA_T0_, symObjAddr: 0xB0DC, symBinAddr: 0x10000E27C, symSize: 0x74 }
  - { offsetInCU: 0xB487, offset: 0xB487, size: 0x8, addend: 0x0, symName: __ZNSt3__14copyB8ue170006INS_16__deque_iteratorIiPiRiPS2_lLl1024EEES5_EET0_T_S7_S6_, symObjAddr: 0xB4BC, symBinAddr: 0x10000E65C, symSize: 0x78 }
  - { offsetInCU: 0xB4E1, offset: 0xB4E1, size: 0x8, addend: 0x0, symName: __ZNSt3__16__copyB8ue170006INS_17_ClassicAlgPolicyENS_16__deque_iteratorIiPiRiPS3_lLl1024EEES6_S6_EENS_4pairIT0_T2_EES8_T1_S9_, symObjAddr: 0xB5BC, symBinAddr: 0x10000E75C, symSize: 0x64 }
  - { offsetInCU: 0xB54D, offset: 0xB54D, size: 0x8, addend: 0x0, symName: __ZNSt3__123__dispatch_copy_or_moveB8ue170006INS_17_ClassicAlgPolicyENS_11__copy_loopIS1_EENS_14__copy_trivialENS_16__deque_iteratorIiPiRiPS6_lLl1024EEES9_S9_EENS_4pairIT2_T4_EESB_T3_SC_, symObjAddr: 0xB620, symBinAddr: 0x10000E7C0, symSize: 0x64 }
  - { offsetInCU: 0xB5CB, offset: 0xB5CB, size: 0x8, addend: 0x0, symName: __ZNSt3__121__unwrap_and_dispatchB8ue170006INS_10__overloadINS_11__copy_loopINS_17_ClassicAlgPolicyEEENS_14__copy_trivialEEENS_16__deque_iteratorIiPiRiPS8_lLl1024EEESB_SB_Li0EEENS_4pairIT0_T2_EESD_T1_SE_, symObjAddr: 0xB684, symBinAddr: 0x10000E824, symSize: 0x12C }
  - { offsetInCU: 0xB65B, offset: 0xB65B, size: 0x8, addend: 0x0, symName: __ZNSt3__114__unwrap_rangeB8ue170006INS_16__deque_iteratorIiPiRiPS2_lLl1024EEES5_EENS_4pairIT0_S7_EET_S9_, symObjAddr: 0xB7B0, symBinAddr: 0x10000E950, symSize: 0x84 }
  - { offsetInCU: 0xB7D9, offset: 0xB7D9, size: 0x8, addend: 0x0, symName: __ZNSt3__19make_pairB8ue170006INS_16__deque_iteratorIiPiRiPS2_lLl1024EEES5_EENS_4pairINS_18__unwrap_ref_decayIT_E4typeENS7_IT0_E4typeEEEOS8_OSB_, symObjAddr: 0xB8BC, symBinAddr: 0x10000EA5C, symSize: 0x38 }
  - { offsetInCU: 0xB828, offset: 0xB828, size: 0x8, addend: 0x0, symName: __ZNSt3__114__rewrap_rangeB8ue170006INS_16__deque_iteratorIiPiRiPS2_lLl1024EEES5_EET_S6_T0_, symObjAddr: 0xB8F4, symBinAddr: 0x10000EA94, symSize: 0x5C }
  - { offsetInCU: 0xB874, offset: 0xB874, size: 0x8, addend: 0x0, symName: __ZNSt3__118__for_each_segmentB8ue170006INS_16__deque_iteratorIiPiRiPS2_lLl1024EEENS_11__copy_loopINS_17_ClassicAlgPolicyEE12_CopySegmentIS5_S5_EEEEvT_SB_T0_, symObjAddr: 0xB950, symBinAddr: 0x10000EAF0, symSize: 0x174 }
  - { offsetInCU: 0xB8E7, offset: 0xB8E7, size: 0x8, addend: 0x0, symName: __ZNSt3__19make_pairB8ue170006IRNS_16__deque_iteratorIiPiRiPS2_lLl1024EEES5_EENS_4pairINS_18__unwrap_ref_decayIT_E4typeENS8_IT0_E4typeEEEOS9_OSC_, symObjAddr: 0xBAF8, symBinAddr: 0x10000EC98, symSize: 0x38 }
  - { offsetInCU: 0xB936, offset: 0xB936, size: 0x8, addend: 0x0, symName: __ZNSt3__16__copyB8ue170006INS_17_ClassicAlgPolicyEPiS2_NS_16__deque_iteratorIiS2_RiPS2_lLl1024EEEEENS_4pairIT0_T2_EES8_T1_S9_, symObjAddr: 0xBB98, symBinAddr: 0x10000ED38, symSize: 0x44 }
  - { offsetInCU: 0xB99E, offset: 0xB99E, size: 0x8, addend: 0x0, symName: __ZNSt3__123__dispatch_copy_or_moveB8ue170006INS_17_ClassicAlgPolicyENS_11__copy_loopIS1_EENS_14__copy_trivialEPiS5_NS_16__deque_iteratorIiS5_RiPS5_lLl1024EEEEENS_4pairIT2_T4_EESB_T3_SC_, symObjAddr: 0xBBDC, symBinAddr: 0x10000ED7C, symSize: 0x44 }
  - { offsetInCU: 0xBA1C, offset: 0xBA1C, size: 0x8, addend: 0x0, symName: __ZNSt3__121__unwrap_and_dispatchB8ue170006INS_10__overloadINS_11__copy_loopINS_17_ClassicAlgPolicyEEENS_14__copy_trivialEEEPiS7_NS_16__deque_iteratorIiS7_RiPS7_lLl1024EEELi0EEENS_4pairIT0_T2_EESD_T1_SE_, symObjAddr: 0xBC20, symBinAddr: 0x10000EDC0, symSize: 0xF0 }
  - { offsetInCU: 0xBAAB, offset: 0xBAAB, size: 0x8, addend: 0x0, symName: __ZNSt3__114__unwrap_rangeB8ue170006IPiS1_EENS_4pairIT0_S3_EET_S5_, symObjAddr: 0xBD10, symBinAddr: 0x10000EEB0, symSize: 0x60 }
  - { offsetInCU: 0xBBFA, offset: 0xBBFA, size: 0x8, addend: 0x0, symName: __ZNSt3__19make_pairB8ue170006IPiNS_16__deque_iteratorIiS1_RiPS1_lLl1024EEEEENS_4pairINS_18__unwrap_ref_decayIT_E4typeENS7_IT0_E4typeEEEOS8_OSB_, symObjAddr: 0xBED4, symBinAddr: 0x10000F074, symSize: 0x38 }
  - { offsetInCU: 0xBC49, offset: 0xBC49, size: 0x8, addend: 0x0, symName: __ZNSt3__114__rewrap_rangeB8ue170006IPiS1_EET_S2_T0_, symObjAddr: 0xBF0C, symBinAddr: 0x10000F0AC, symSize: 0x2C }
  - { offsetInCU: 0xBC95, offset: 0xBC95, size: 0x8, addend: 0x0, symName: __ZNSt3__19make_pairB8ue170006IPiS1_EENS_4pairINS_18__unwrap_ref_decayIT_E4typeENS3_IT0_E4typeEEEOS4_OS7_, symObjAddr: 0xBF38, symBinAddr: 0x10000F0D8, symSize: 0x38 }
  - { offsetInCU: 0xBE16, offset: 0xBE16, size: 0x8, addend: 0x0, symName: __ZNSt3__16__copyB8ue170006INS_17_ClassicAlgPolicyEPiS2_S2_EENS_4pairIT0_T2_EES4_T1_S5_, symObjAddr: 0xBFE0, symBinAddr: 0x10000F180, symSize: 0x44 }
  - { offsetInCU: 0xBE7E, offset: 0xBE7E, size: 0x8, addend: 0x0, symName: __ZNSt3__123__dispatch_copy_or_moveB8ue170006INS_17_ClassicAlgPolicyENS_11__copy_loopIS1_EENS_14__copy_trivialEPiS5_S5_EENS_4pairIT2_T4_EES7_T3_S8_, symObjAddr: 0xC024, symBinAddr: 0x10000F1C4, symSize: 0x44 }
  - { offsetInCU: 0xBEFC, offset: 0xBEFC, size: 0x8, addend: 0x0, symName: __ZNSt3__121__unwrap_and_dispatchB8ue170006INS_10__overloadINS_11__copy_loopINS_17_ClassicAlgPolicyEEENS_14__copy_trivialEEEPiS7_S7_Li0EEENS_4pairIT0_T2_EES9_T1_SA_, symObjAddr: 0xC068, symBinAddr: 0x10000F208, symSize: 0xB4 }
  - { offsetInCU: 0xBF8A, offset: 0xBF8A, size: 0x8, addend: 0x0, symName: __ZNSt3__119__copy_trivial_implB8ue170006IiiEENS_4pairIPT_PT0_EES3_S3_S5_, symObjAddr: 0xC164, symBinAddr: 0x10000F304, symSize: 0x80 }
  - { offsetInCU: 0xBFF2, offset: 0xBFF2, size: 0x8, addend: 0x0, symName: __ZNSt3__119__constexpr_memmoveB8ue170006IiiLi0EEEPT_S2_PT0_NS_15__element_countE, symObjAddr: 0xC1E4, symBinAddr: 0x10000F384, symSize: 0x64 }
  - { offsetInCU: 0xC060, offset: 0xC060, size: 0x8, addend: 0x0, symName: __ZNSt3__19make_pairB8ue170006IRPiS1_EENS_4pairINS_18__unwrap_ref_decayIT_E4typeENS4_IT0_E4typeEEEOS5_OS8_, symObjAddr: 0xC248, symBinAddr: 0x10000F3E8, symSize: 0x38 }
  - { offsetInCU: 0xC0AF, offset: 0xC0AF, size: 0x8, addend: 0x0, symName: __ZNSt3__16fill_nB8ue170006INS_16__deque_iteratorIiPiRiPS2_lLl1024EEEmiEET_S6_T0_RKT1_, symObjAddr: 0xC460, symBinAddr: 0x10000F600, symSize: 0x5C }
  - { offsetInCU: 0xC112, offset: 0xC112, size: 0x8, addend: 0x0, symName: __ZNSt3__18__fill_nB8ue170006INS_16__deque_iteratorIiPiRiPS2_lLl1024EEEmiEET_S6_T0_RKT1_, symObjAddr: 0xC4BC, symBinAddr: 0x10000F65C, symSize: 0x88 }
  - { offsetInCU: 0xC175, offset: 0xC175, size: 0x8, addend: 0x0, symName: __ZNSt3__121__convert_to_integralB8ue170006Em, symObjAddr: 0xC544, symBinAddr: 0x10000F6E4, symSize: 0x14 }
  - { offsetInCU: 0xC1A1, offset: 0xC1A1, size: 0x8, addend: 0x0, symName: __ZNSt3__14prevB8ue170006INS_16__deque_iteratorIiPiRiPS2_lLl1024EEEEENS_9enable_ifIXsr29__has_input_iterator_categoryIT_EE5valueES7_E4typeES7_NS_15iterator_traitsIS7_E15difference_typeE, symObjAddr: 0xD0A4, symBinAddr: 0x100010244, symSize: 0x4C }
  - { offsetInCU: 0xC1E4, offset: 0xC1E4, size: 0x8, addend: 0x0, symName: __ZNSt3__14moveB8ue170006INS_16__deque_iteratorIiPiRiPS2_lLl1024EEES5_EET0_T_S7_S6_, symObjAddr: 0xD0F0, symBinAddr: 0x100010290, symSize: 0x78 }
  - { offsetInCU: 0xC23E, offset: 0xC23E, size: 0x8, addend: 0x0, symName: __ZNSt3__14nextB8ue170006INS_16__deque_iteratorIiPiRiPS2_lLl1024EEEEENS_9enable_ifIXsr29__has_input_iterator_categoryIT_EE5valueES7_E4typeES7_NS_15iterator_traitsIS7_E15difference_typeE, symObjAddr: 0xD168, symBinAddr: 0x100010308, symSize: 0x44 }
  - { offsetInCU: 0xC281, offset: 0xC281, size: 0x8, addend: 0x0, symName: __ZNSt3__113move_backwardB8ue170006INS_16__deque_iteratorIiPiRiPS2_lLl1024EEES5_EET0_T_S7_S6_, symObjAddr: 0xD1AC, symBinAddr: 0x10001034C, symSize: 0x78 }
  - { offsetInCU: 0xC2DB, offset: 0xC2DB, size: 0x8, addend: 0x0, symName: __ZNSt3__121__convert_to_integralB8ue170006El, symObjAddr: 0xD29C, symBinAddr: 0x10001043C, symSize: 0x14 }
  - { offsetInCU: 0xC307, offset: 0xC307, size: 0x8, addend: 0x0, symName: __ZNSt3__19__advanceB8ue170006INS_16__deque_iteratorIiPiRiPS2_lLl1024EEEEEvRT_NS_15iterator_traitsIS6_E15difference_typeENS_26random_access_iterator_tagE, symObjAddr: 0xD2B0, symBinAddr: 0x100010450, symSize: 0x2C }
  - { offsetInCU: 0xC350, offset: 0xC350, size: 0x8, addend: 0x0, symName: __ZNSt3__16__moveB8ue170006INS_17_ClassicAlgPolicyENS_16__deque_iteratorIiPiRiPS3_lLl1024EEES6_S6_EENS_4pairIT0_T2_EES8_T1_S9_, symObjAddr: 0xD2DC, symBinAddr: 0x10001047C, symSize: 0x64 }
  - { offsetInCU: 0xC3BC, offset: 0xC3BC, size: 0x8, addend: 0x0, symName: __ZNSt3__123__dispatch_copy_or_moveB8ue170006INS_17_ClassicAlgPolicyENS_11__move_loopIS1_EENS_14__move_trivialENS_16__deque_iteratorIiPiRiPS6_lLl1024EEES9_S9_EENS_4pairIT2_T4_EESB_T3_SC_, symObjAddr: 0xD340, symBinAddr: 0x1000104E0, symSize: 0x64 }
  - { offsetInCU: 0xC43A, offset: 0xC43A, size: 0x8, addend: 0x0, symName: __ZNSt3__121__unwrap_and_dispatchB8ue170006INS_10__overloadINS_11__move_loopINS_17_ClassicAlgPolicyEEENS_14__move_trivialEEENS_16__deque_iteratorIiPiRiPS8_lLl1024EEESB_SB_Li0EEENS_4pairIT0_T2_EESD_T1_SE_, symObjAddr: 0xD3A4, symBinAddr: 0x100010544, symSize: 0x12C }
  - { offsetInCU: 0xC4CA, offset: 0xC4CA, size: 0x8, addend: 0x0, symName: __ZNSt3__118__for_each_segmentB8ue170006INS_16__deque_iteratorIiPiRiPS2_lLl1024EEENS_11__move_loopINS_17_ClassicAlgPolicyEE12_MoveSegmentIS5_S5_EEEEvT_SB_T0_, symObjAddr: 0xD558, symBinAddr: 0x1000106F8, symSize: 0x174 }
  - { offsetInCU: 0xC53D, offset: 0xC53D, size: 0x8, addend: 0x0, symName: __ZNSt3__16__moveB8ue170006INS_17_ClassicAlgPolicyEPiS2_NS_16__deque_iteratorIiS2_RiPS2_lLl1024EEEEENS_4pairIT0_T2_EES8_T1_S9_, symObjAddr: 0xD768, symBinAddr: 0x100010908, symSize: 0x44 }
  - { offsetInCU: 0xC5A9, offset: 0xC5A9, size: 0x8, addend: 0x0, symName: __ZNSt3__123__dispatch_copy_or_moveB8ue170006INS_17_ClassicAlgPolicyENS_11__move_loopIS1_EENS_14__move_trivialEPiS5_NS_16__deque_iteratorIiS5_RiPS5_lLl1024EEEEENS_4pairIT2_T4_EESB_T3_SC_, symObjAddr: 0xD7AC, symBinAddr: 0x10001094C, symSize: 0x44 }
  - { offsetInCU: 0xC627, offset: 0xC627, size: 0x8, addend: 0x0, symName: __ZNSt3__121__unwrap_and_dispatchB8ue170006INS_10__overloadINS_11__move_loopINS_17_ClassicAlgPolicyEEENS_14__move_trivialEEEPiS7_NS_16__deque_iteratorIiS7_RiPS7_lLl1024EEELi0EEENS_4pairIT0_T2_EESD_T1_SE_, symObjAddr: 0xD7F0, symBinAddr: 0x100010990, symSize: 0xF0 }
  - { offsetInCU: 0xC6B6, offset: 0xC6B6, size: 0x8, addend: 0x0, symName: __ZNSt3__16__moveB8ue170006INS_17_ClassicAlgPolicyEPiS2_S2_EENS_4pairIT0_T2_EES4_T1_S5_, symObjAddr: 0xDA44, symBinAddr: 0x100010BE4, symSize: 0x44 }
  - { offsetInCU: 0xC722, offset: 0xC722, size: 0x8, addend: 0x0, symName: __ZNSt3__123__dispatch_copy_or_moveB8ue170006INS_17_ClassicAlgPolicyENS_11__move_loopIS1_EENS_14__move_trivialEPiS5_S5_EENS_4pairIT2_T4_EES7_T3_S8_, symObjAddr: 0xDA88, symBinAddr: 0x100010C28, symSize: 0x44 }
  - { offsetInCU: 0xC7A0, offset: 0xC7A0, size: 0x8, addend: 0x0, symName: __ZNSt3__121__unwrap_and_dispatchB8ue170006INS_10__overloadINS_11__move_loopINS_17_ClassicAlgPolicyEEENS_14__move_trivialEEEPiS7_S7_Li0EEENS_4pairIT0_T2_EES9_T1_SA_, symObjAddr: 0xDACC, symBinAddr: 0x100010C6C, symSize: 0xB4 }
  - { offsetInCU: 0xC82E, offset: 0xC82E, size: 0x8, addend: 0x0, symName: __ZNSt3__115__move_backwardB8ue170006INS_17_ClassicAlgPolicyENS_16__deque_iteratorIiPiRiPS3_lLl1024EEES6_S6_EENS_4pairIT0_T2_EES8_T1_S9_, symObjAddr: 0xDBE8, symBinAddr: 0x100010D88, symSize: 0x64 }
  - { offsetInCU: 0xC89A, offset: 0xC89A, size: 0x8, addend: 0x0, symName: __ZNSt3__123__dispatch_copy_or_moveB8ue170006INS_17_ClassicAlgPolicyENS_20__move_backward_loopIS1_EENS_23__move_backward_trivialENS_16__deque_iteratorIiPiRiPS6_lLl1024EEES9_S9_EENS_4pairIT2_T4_EESB_T3_SC_, symObjAddr: 0xDC4C, symBinAddr: 0x100010DEC, symSize: 0x64 }
  - { offsetInCU: 0xC918, offset: 0xC918, size: 0x8, addend: 0x0, symName: __ZNSt3__121__unwrap_and_dispatchB8ue170006INS_10__overloadINS_20__move_backward_loopINS_17_ClassicAlgPolicyEEENS_23__move_backward_trivialEEENS_16__deque_iteratorIiPiRiPS8_lLl1024EEESB_SB_Li0EEENS_4pairIT0_T2_EESD_T1_SE_, symObjAddr: 0xDCB0, symBinAddr: 0x100010E50, symSize: 0x12C }
  - { offsetInCU: 0xCA33, offset: 0xCA33, size: 0x8, addend: 0x0, symName: __ZNSt3__115__move_backwardB8ue170006INS_17_ClassicAlgPolicyEPiS2_NS_16__deque_iteratorIiS2_RiPS2_lLl1024EEEEENS_4pairIT0_T2_EES8_T1_S9_, symObjAddr: 0xE00C, symBinAddr: 0x1000111AC, symSize: 0x44 }
  - { offsetInCU: 0xCA9F, offset: 0xCA9F, size: 0x8, addend: 0x0, symName: __ZNSt3__19make_pairB8ue170006IRNS_16__deque_iteratorIiPiRiPS2_lLl1024EEES6_EENS_4pairINS_18__unwrap_ref_decayIT_E4typeENS8_IT0_E4typeEEEOS9_OSC_, symObjAddr: 0xE050, symBinAddr: 0x1000111F0, symSize: 0x38 }
  - { offsetInCU: 0xCAEE, offset: 0xCAEE, size: 0x8, addend: 0x0, symName: __ZNSt3__123__dispatch_copy_or_moveB8ue170006INS_17_ClassicAlgPolicyENS_20__move_backward_loopIS1_EENS_23__move_backward_trivialEPiS5_NS_16__deque_iteratorIiS5_RiPS5_lLl1024EEEEENS_4pairIT2_T4_EESB_T3_SC_, symObjAddr: 0xE088, symBinAddr: 0x100011228, symSize: 0x44 }
  - { offsetInCU: 0xCB6C, offset: 0xCB6C, size: 0x8, addend: 0x0, symName: __ZNSt3__121__unwrap_and_dispatchB8ue170006INS_10__overloadINS_20__move_backward_loopINS_17_ClassicAlgPolicyEEENS_23__move_backward_trivialEEEPiS7_NS_16__deque_iteratorIiS7_RiPS7_lLl1024EEELi0EEENS_4pairIT0_T2_EESD_T1_SE_, symObjAddr: 0xE0CC, symBinAddr: 0x10001126C, symSize: 0xF0 }
  - { offsetInCU: 0xCBFB, offset: 0xCBFB, size: 0x8, addend: 0x0, symName: __ZNSt3__19make_pairB8ue170006IRPiRNS_16__deque_iteratorIiS1_RiPS1_lLl1024EEEEENS_4pairINS_18__unwrap_ref_decayIT_E4typeENS9_IT0_E4typeEEEOSA_OSD_, symObjAddr: 0xE358, symBinAddr: 0x1000114F8, symSize: 0x38 }
  - { offsetInCU: 0xCC4A, offset: 0xCC4A, size: 0x8, addend: 0x0, symName: __ZNSt3__115__move_backwardB8ue170006INS_17_ClassicAlgPolicyEPiS2_S2_EENS_4pairIT0_T2_EES4_T1_S5_, symObjAddr: 0xE390, symBinAddr: 0x100011530, symSize: 0x44 }
  - { offsetInCU: 0xCCB6, offset: 0xCCB6, size: 0x8, addend: 0x0, symName: __ZNSt3__123__dispatch_copy_or_moveB8ue170006INS_17_ClassicAlgPolicyENS_20__move_backward_loopIS1_EENS_23__move_backward_trivialEPiS5_S5_EENS_4pairIT2_T4_EES7_T3_S8_, symObjAddr: 0xE444, symBinAddr: 0x1000115E4, symSize: 0x44 }
  - { offsetInCU: 0xCD34, offset: 0xCD34, size: 0x8, addend: 0x0, symName: __ZNSt3__121__unwrap_and_dispatchB8ue170006INS_10__overloadINS_20__move_backward_loopINS_17_ClassicAlgPolicyEEENS_23__move_backward_trivialEEEPiS7_S7_Li0EEENS_4pairIT0_T2_EES9_T1_SA_, symObjAddr: 0xE488, symBinAddr: 0x100011628, symSize: 0xB4 }
  - { offsetInCU: 0xCDC2, offset: 0xCDC2, size: 0x8, addend: 0x0, symName: __ZNSt3__128__copy_backward_trivial_implB8ue170006IiiEENS_4pairIPT_PT0_EES3_S3_S5_, symObjAddr: 0xE584, symBinAddr: 0x100011724, symSize: 0x90 }
  - { offsetInCU: 0xCE2A, offset: 0xCE2A, size: 0x8, addend: 0x0, symName: __ZNSt3__19make_pairB8ue170006IRPiS2_EENS_4pairINS_18__unwrap_ref_decayIT_E4typeENS4_IT0_E4typeEEEOS5_OS8_, symObjAddr: 0xE614, symBinAddr: 0x1000117B4, symSize: 0x38 }
  - { offsetInCU: 0xCEAC, offset: 0xCEAC, size: 0x8, addend: 0x0, symName: __ZNSt3__14moveB8ue170006IPiNS_16__deque_iteratorIiS1_RiPS1_lLl1024EEEEET0_T_S7_S6_, symObjAddr: 0xF560, symBinAddr: 0x100012700, symSize: 0x60 }
  - { offsetInCU: 0xCF06, offset: 0xCF06, size: 0x8, addend: 0x0, symName: __ZNSt3__113move_backwardB8ue170006IPiNS_16__deque_iteratorIiS1_RiPS1_lLl1024EEEEET0_T_S7_S6_, symObjAddr: 0xF5C0, symBinAddr: 0x100012760, symSize: 0x60 }
  - { offsetInCU: 0xCF60, offset: 0xCF60, size: 0x8, addend: 0x0, symName: __ZNSt3__113copy_backwardB8ue170006INS_16__deque_iteratorIiPiRiPS2_lLl1024EEES5_EET0_T_S7_S6_, symObjAddr: 0xFCDC, symBinAddr: 0x100012E7C, symSize: 0x78 }
  - { offsetInCU: 0xCFBA, offset: 0xCFBA, size: 0x8, addend: 0x0, symName: __ZNSt3__115__copy_backwardB8ue170006INS_17_ClassicAlgPolicyENS_16__deque_iteratorIiPiRiPS3_lLl1024EEES6_S6_EENS_4pairIT0_T2_EES8_T1_S9_, symObjAddr: 0xFD54, symBinAddr: 0x100012EF4, symSize: 0x64 }
  - { offsetInCU: 0xD026, offset: 0xD026, size: 0x8, addend: 0x0, symName: __ZNSt3__123__dispatch_copy_or_moveB8ue170006INS_17_ClassicAlgPolicyENS_20__copy_backward_loopIS1_EENS_23__copy_backward_trivialENS_16__deque_iteratorIiPiRiPS6_lLl1024EEES9_S9_EENS_4pairIT2_T4_EESB_T3_SC_, symObjAddr: 0xFDB8, symBinAddr: 0x100012F58, symSize: 0x64 }
  - { offsetInCU: 0xD0A4, offset: 0xD0A4, size: 0x8, addend: 0x0, symName: __ZNSt3__121__unwrap_and_dispatchB8ue170006INS_10__overloadINS_20__copy_backward_loopINS_17_ClassicAlgPolicyEEENS_23__copy_backward_trivialEEENS_16__deque_iteratorIiPiRiPS8_lLl1024EEESB_SB_Li0EEENS_4pairIT0_T2_EESD_T1_SE_, symObjAddr: 0xFE1C, symBinAddr: 0x100012FBC, symSize: 0x12C }
  - { offsetInCU: 0xD1BF, offset: 0xD1BF, size: 0x8, addend: 0x0, symName: __ZNSt3__115__copy_backwardB8ue170006INS_17_ClassicAlgPolicyEPiS2_NS_16__deque_iteratorIiS2_RiPS2_lLl1024EEEEENS_4pairIT0_T2_EES8_T1_S9_, symObjAddr: 0x10178, symBinAddr: 0x100013318, symSize: 0x44 }
  - { offsetInCU: 0xD22B, offset: 0xD22B, size: 0x8, addend: 0x0, symName: __ZNSt3__123__dispatch_copy_or_moveB8ue170006INS_17_ClassicAlgPolicyENS_20__copy_backward_loopIS1_EENS_23__copy_backward_trivialEPiS5_NS_16__deque_iteratorIiS5_RiPS5_lLl1024EEEEENS_4pairIT2_T4_EESB_T3_SC_, symObjAddr: 0x101BC, symBinAddr: 0x10001335C, symSize: 0x44 }
  - { offsetInCU: 0xD2A9, offset: 0xD2A9, size: 0x8, addend: 0x0, symName: __ZNSt3__121__unwrap_and_dispatchB8ue170006INS_10__overloadINS_20__copy_backward_loopINS_17_ClassicAlgPolicyEEENS_23__copy_backward_trivialEEEPiS7_NS_16__deque_iteratorIiS7_RiPS7_lLl1024EEELi0EEENS_4pairIT0_T2_EESD_T1_SE_, symObjAddr: 0x10200, symBinAddr: 0x1000133A0, symSize: 0xF0 }
  - { offsetInCU: 0xD338, offset: 0xD338, size: 0x8, addend: 0x0, symName: __ZNSt3__115__copy_backwardB8ue170006INS_17_ClassicAlgPolicyEPiS2_S2_EENS_4pairIT0_T2_EES4_T1_S5_, symObjAddr: 0x10494, symBinAddr: 0x100013634, symSize: 0x44 }
  - { offsetInCU: 0xD3A4, offset: 0xD3A4, size: 0x8, addend: 0x0, symName: __ZNSt3__123__dispatch_copy_or_moveB8ue170006INS_17_ClassicAlgPolicyENS_20__copy_backward_loopIS1_EENS_23__copy_backward_trivialEPiS5_S5_EENS_4pairIT2_T4_EES7_T3_S8_, symObjAddr: 0x104D8, symBinAddr: 0x100013678, symSize: 0x44 }
  - { offsetInCU: 0xD422, offset: 0xD422, size: 0x8, addend: 0x0, symName: __ZNSt3__121__unwrap_and_dispatchB8ue170006INS_10__overloadINS_20__copy_backward_loopINS_17_ClassicAlgPolicyEEENS_23__copy_backward_trivialEEEPiS7_S7_Li0EEENS_4pairIT0_T2_EES9_T1_SA_, symObjAddr: 0x1051C, symBinAddr: 0x1000136BC, symSize: 0xB4 }
  - { offsetInCU: 0xD4F6, offset: 0xD4F6, size: 0x8, addend: 0x0, symName: __ZNSt3__120__throw_out_of_rangeB8ue170006EPKc, symObjAddr: 0x10618, symBinAddr: 0x1000137B8, symSize: 0x64 }
  - { offsetInCU: 0xD520, offset: 0xD520, size: 0x8, addend: 0x0, symName: __ZNSt3__14sortB8ue170006INS_16__deque_iteratorIiPiRiPS2_lLl1024EEENS_6__lessIvvEEEEvT_S8_T0_, symObjAddr: 0x106FC, symBinAddr: 0x10001389C, symSize: 0x50 }
  - { offsetInCU: 0xD57A, offset: 0xD57A, size: 0x8, addend: 0x0, symName: __ZNSt3__111__sort_implB8ue170006INS_17_ClassicAlgPolicyENS_16__deque_iteratorIiPiRiPS3_lLl1024EEENS_6__lessIvvEEEEvT0_S9_RT1_, symObjAddr: 0x1074C, symBinAddr: 0x1000138EC, symSize: 0xF0 }
  - { offsetInCU: 0xD5DD, offset: 0xD5DD, size: 0x8, addend: 0x0, symName: __ZNSt3__123__debug_randomize_rangeB8ue170006INS_17_ClassicAlgPolicyENS_16__deque_iteratorIiPiRiPS3_lLl1024EEES6_EEvT0_T1_, symObjAddr: 0x1083C, symBinAddr: 0x1000139DC, symSize: 0x1C }
  - { offsetInCU: 0xD62E, offset: 0xD62E, size: 0x8, addend: 0x0, symName: __ZNSt3__115__sort_dispatchB8ue170006INS_17_ClassicAlgPolicyENS_16__deque_iteratorIiPiRiPS3_lLl1024EEENS_6__lessIvvEEEEvT0_S9_RT1_, symObjAddr: 0x10858, symBinAddr: 0x1000139F8, symSize: 0x80 }
  - { offsetInCU: 0xD6AC, offset: 0xD6AC, size: 0x8, addend: 0x0, symName: __ZNSt3__135__check_strict_weak_ordering_sortedB8ue170006INS_16__deque_iteratorIiPiRiPS2_lLl1024EEENS_6__lessIvvEEEEvT_S8_RT0_, symObjAddr: 0x108D8, symBinAddr: 0x100013A78, symSize: 0x20 }
  - { offsetInCU: 0xD702, offset: 0xD702, size: 0x8, addend: 0x0, symName: __ZNSt3__17__log2iB8ue170006IlEET_S1_, symObjAddr: 0x108F8, symBinAddr: 0x100013A98, symSize: 0x54 }
  - { offsetInCU: 0xD739, offset: 0xD739, size: 0x8, addend: 0x0, symName: __ZNSt3__112__libcpp_clzB8ue170006Em, symObjAddr: 0x11128, symBinAddr: 0x1000142C8, symSize: 0x1C }
  - { offsetInCU: 0xD846, offset: 0xD846, size: 0x8, addend: 0x0, symName: __ZNSt3__124__sort3_maybe_branchlessB8ue170006INS_17_ClassicAlgPolicyERNS_6__lessIvvEENS_16__deque_iteratorIiPiRiPS6_lLl1024EEEEENS_9enable_ifIXntsr21__use_branchless_sortIT0_T1_EE5valueEvE4typeESC_SC_SC_SB_, symObjAddr: 0x111C4, symBinAddr: 0x100014364, symSize: 0x6C }
  - { offsetInCU: 0xD8B7, offset: 0xD8B7, size: 0x8, addend: 0x0, symName: __ZNSt3__124__sort4_maybe_branchlessB8ue170006INS_17_ClassicAlgPolicyERNS_6__lessIvvEENS_16__deque_iteratorIiPiRiPS6_lLl1024EEEEENS_9enable_ifIXntsr21__use_branchless_sortIT0_T1_EE5valueEvE4typeESC_SC_SC_SC_SB_, symObjAddr: 0x11230, symBinAddr: 0x1000143D0, symSize: 0x90 }
  - { offsetInCU: 0xD937, offset: 0xD937, size: 0x8, addend: 0x0, symName: __ZNSt3__124__sort5_maybe_branchlessB8ue170006INS_17_ClassicAlgPolicyERNS_6__lessIvvEENS_16__deque_iteratorIiPiRiPS6_lLl1024EEEEENS_9enable_ifIXntsr21__use_branchless_sortIT0_T1_EE5valueEvE4typeESC_SC_SC_SC_SC_SB_, symObjAddr: 0x112C0, symBinAddr: 0x100014460, symSize: 0xB8 }
  - { offsetInCU: 0xD9C6, offset: 0xD9C6, size: 0x8, addend: 0x0, symName: __ZNSt3__116__insertion_sortB8ue170006INS_17_ClassicAlgPolicyERNS_6__lessIvvEENS_16__deque_iteratorIiPiRiPS6_lLl1024EEEEEvT1_SA_T0_, symObjAddr: 0x11378, symBinAddr: 0x100014518, symSize: 0x194 }
  - { offsetInCU: 0xDA8C, offset: 0xDA8C, size: 0x8, addend: 0x0, symName: __ZNSt3__114__partial_sortB8ue170006INS_17_ClassicAlgPolicyERNS_6__lessIvvEENS_16__deque_iteratorIiPiRiPS6_lLl1024EEES9_EET1_SA_SA_T2_RT0_, symObjAddr: 0x116A8, symBinAddr: 0x100014848, symSize: 0x110 }
  - { offsetInCU: 0xDB15, offset: 0xDB15, size: 0x8, addend: 0x0, symName: __ZNSt3__17__sort3B8ue170006INS_17_ClassicAlgPolicyERNS_6__lessIvvEENS_16__deque_iteratorIiPiRiPS6_lLl1024EEEEEjT1_SA_SA_T0_, symObjAddr: 0x117B8, symBinAddr: 0x100014958, symSize: 0x1F4 }
  - { offsetInCU: 0xDB95, offset: 0xDB95, size: 0x8, addend: 0x0, symName: __ZNSt3__19iter_swapB8ue170006INS_16__deque_iteratorIiPiRiPS2_lLl1024EEES5_EEvT_T0_, symObjAddr: 0x127C0, symBinAddr: 0x100015960, symSize: 0x58 }
  - { offsetInCU: 0xDBDD, offset: 0xDBDD, size: 0x8, addend: 0x0, symName: __ZNSt3__14swapB8ue170006IiEENS_9enable_ifIXaasr21is_move_constructibleIT_EE5valuesr18is_move_assignableIS2_EE5valueEvE4typeERS2_S5_, symObjAddr: 0x12818, symBinAddr: 0x1000159B8, symSize: 0x3C }
  - { offsetInCU: 0xDC2E, offset: 0xDC2E, size: 0x8, addend: 0x0, symName: __ZNSt3__17__sort4B8ue170006INS_17_ClassicAlgPolicyERNS_6__lessIvvEENS_16__deque_iteratorIiPiRiPS6_lLl1024EEEEEvT1_SA_SA_SA_T0_, symObjAddr: 0x12854, symBinAddr: 0x1000159F4, symSize: 0x160 }
  - { offsetInCU: 0xDCAA, offset: 0xDCAA, size: 0x8, addend: 0x0, symName: __ZNSt3__17__sort5B8ue170006INS_17_ClassicAlgPolicyERNS_6__lessIvvEENS_16__deque_iteratorIiPiRiPS6_lLl1024EEEEEvT1_SA_SA_SA_SA_T0_, symObjAddr: 0x129B4, symBinAddr: 0x100015B54, symSize: 0x1D8 }
  - { offsetInCU: 0xDD5A, offset: 0xDD5A, size: 0x8, addend: 0x0, symName: __ZNSt3__119__partial_sort_implB8ue170006INS_17_ClassicAlgPolicyERNS_6__lessIvvEENS_16__deque_iteratorIiPiRiPS6_lLl1024EEES9_EET1_SA_SA_T2_OT0_, symObjAddr: 0x12BE4, symBinAddr: 0x100015D84, symSize: 0x1A0 }
  - { offsetInCU: 0xDDF3, offset: 0xDDF3, size: 0x8, addend: 0x0, symName: __ZNSt3__111__make_heapB8ue170006INS_17_ClassicAlgPolicyERNS_6__lessIvvEENS_16__deque_iteratorIiPiRiPS6_lLl1024EEEEEvT1_SA_OT0_, symObjAddr: 0x12D84, symBinAddr: 0x100015F24, symSize: 0xE8 }
  - { offsetInCU: 0xDE95, offset: 0xDE95, size: 0x8, addend: 0x0, symName: __ZNSt3__111__sort_heapB8ue170006INS_17_ClassicAlgPolicyERNS_6__lessIvvEENS_16__deque_iteratorIiPiRiPS6_lLl1024EEEEEvT1_SA_OT0_, symObjAddr: 0x13168, symBinAddr: 0x100016308, symSize: 0xD8 }
  - { offsetInCU: 0xDF39, offset: 0xDF39, size: 0x8, addend: 0x0, symName: __ZNSt3__110__pop_heapB8ue170006INS_17_ClassicAlgPolicyENS_6__lessIvvEENS_16__deque_iteratorIiPiRiPS5_lLl1024EEEEEvT1_S9_RT0_NS_15iterator_traitsIS9_E15difference_typeE, symObjAddr: 0x13240, symBinAddr: 0x1000163E0, symSize: 0x15C }
  - { offsetInCU: 0xDFEA, offset: 0xDFEA, size: 0x8, addend: 0x0, symName: __ZNSt3__19__sift_upB8ue170006INS_17_ClassicAlgPolicyERNS_6__lessIvvEENS_16__deque_iteratorIiPiRiPS6_lLl1024EEEEEvT1_SA_OT0_NS_15iterator_traitsISA_E15difference_typeE, symObjAddr: 0x134F4, symBinAddr: 0x100016694, symSize: 0x178 }
  - { offsetInCU: 0xE09B, offset: 0xE09B, size: 0x8, addend: 0x0, symName: __ZNSt3__1ltB8ue170006ERKNS_16__deque_iteratorIiPiRiPS1_lLl1024EEES6_, symObjAddr: 0x1366C, symBinAddr: 0x10001680C, symSize: 0x98 }
  - { offsetInCU: 0xE0D8, offset: 0xE0D8, size: 0x8, addend: 0x0, symName: __ZNSt3__1geB8ue170006ERKNS_16__deque_iteratorIiPiRiPS1_lLl1024EEES6_, symObjAddr: 0x13704, symBinAddr: 0x1000168A4, symSize: 0x34 }
  - { offsetInCU: 0xE115, offset: 0xE115, size: 0x8, addend: 0x0, symName: __ZNSt3__122__populate_left_bitsetB8ue170006IRNS_6__lessIvvEENS_16__deque_iteratorIiPiRiPS5_lLl1024EEEiEEvT0_T_RT1_Ry, symObjAddr: 0x13738, symBinAddr: 0x1000168D8, symSize: 0xC0 }
  - { offsetInCU: 0xE1D0, offset: 0xE1D0, size: 0x8, addend: 0x0, symName: __ZNSt3__123__populate_right_bitsetB8ue170006IRNS_6__lessIvvEENS_16__deque_iteratorIiPiRiPS5_lLl1024EEEiEEvT0_T_RT1_Ry, symObjAddr: 0x137F8, symBinAddr: 0x100016998, symSize: 0xB8 }
  - { offsetInCU: 0xE28B, offset: 0xE28B, size: 0x8, addend: 0x0, symName: __ZNSt3__117__swap_bitmap_posB8ue170006INS_17_ClassicAlgPolicyENS_16__deque_iteratorIiPiRiPS3_lLl1024EEEEEvT0_S7_RyS8_, symObjAddr: 0x138B0, symBinAddr: 0x100016A50, symSize: 0x118 }
  - { offsetInCU: 0xE32C, offset: 0xE32C, size: 0x8, addend: 0x0, symName: __ZNSt3__133__bitset_partition_partial_blocksB8ue170006INS_17_ClassicAlgPolicyERNS_6__lessIvvEENS_16__deque_iteratorIiPiRiPS6_lLl1024EEEiEEvRT1_SB_T0_RT2_RySF_, symObjAddr: 0x139C8, symBinAddr: 0x100016B68, symSize: 0x300 }
  - { offsetInCU: 0xE4B3, offset: 0xE4B3, size: 0x8, addend: 0x0, symName: __ZNSt3__19make_pairB8ue170006IRNS_16__deque_iteratorIiPiRiPS2_lLl1024EEERbEENS_4pairINS_18__unwrap_ref_decayIT_E4typeENS9_IT0_E4typeEEEOSA_OSD_, symObjAddr: 0x13E94, symBinAddr: 0x100017034, symSize: 0x38 }
  - { offsetInCU: 0xE502, offset: 0xE502, size: 0x8, addend: 0x0, symName: __ZNSt3__112__libcpp_ctzB8ue170006Ey, symObjAddr: 0x13ECC, symBinAddr: 0x10001706C, symSize: 0x20 }
  - { offsetInCU: 0xE52E, offset: 0xE52E, size: 0x8, addend: 0x0, symName: __ZNSt3__113__libcpp_blsrB8ue170006Ey, symObjAddr: 0x13EEC, symBinAddr: 0x10001708C, symSize: 0x2C }
  - { offsetInCU: 0xE55A, offset: 0xE55A, size: 0x8, addend: 0x0, symName: __ZNSt3__112__libcpp_clzB8ue170006Ey, symObjAddr: 0x13F64, symBinAddr: 0x100017104, symSize: 0x1C }
  - { offsetInCU: 0xEA73, offset: 0xEA73, size: 0x8, addend: 0x0, symName: __ZSt28__throw_bad_array_new_lengthB8ue170006v, symObjAddr: 0x6C60, symBinAddr: 0x100009E00, symSize: 0x34 }
  - { offsetInCU: 0x1140A, offset: 0x1140A, size: 0x8, addend: 0x0, symName: __Z7printerRKNSt3__15dequeIiNS_9allocatorIiEEEE, symObjAddr: 0x0, symBinAddr: 0x1000031A0, symSize: 0xAC }
  - { offsetInCU: 0x1144F, offset: 0x1144F, size: 0x8, addend: 0x0, symName: __ZNKSt3__15dequeIiNS_9allocatorIiEEE5beginB8ue170006Ev, symObjAddr: 0xAC, symBinAddr: 0x10000324C, symSize: 0xB8 }
  - { offsetInCU: 0x11484, offset: 0x11484, size: 0x8, addend: 0x0, symName: __ZNKSt3__15dequeIiNS_9allocatorIiEEE3endB8ue170006Ev, symObjAddr: 0x198, symBinAddr: 0x100003338, symSize: 0xBC }
  - { offsetInCU: 0x114C8, offset: 0x114C8, size: 0x8, addend: 0x0, symName: __ZNKSt3__116__deque_iteratorIiPKiRS1_PKS2_lLl1024EEdeB8ue170006Ev, symObjAddr: 0x29C, symBinAddr: 0x10000343C, symSize: 0x18 }
  - { offsetInCU: 0x114EE, offset: 0x114EE, size: 0x8, addend: 0x0, symName: __ZNSt3__116__deque_iteratorIiPKiRS1_PKS2_lLl1024EEppB8ue170006Ei, symObjAddr: 0x2B4, symBinAddr: 0x100003454, symSize: 0x38 }
  - { offsetInCU: 0x1152F, offset: 0x1152F, size: 0x8, addend: 0x0, symName: __ZNSt3__113basic_ostreamIcNS_11char_traitsIcEEElsB8ue170006EPFRS3_S4_E, symObjAddr: 0x2EC, symBinAddr: 0x10000348C, symSize: 0x2C }
  - { offsetInCU: 0x11562, offset: 0x11562, size: 0x8, addend: 0x0, symName: __Z9constructv, symObjAddr: 0x370, symBinAddr: 0x100003510, symSize: 0x1E0 }
  - { offsetInCU: 0x115E3, offset: 0x115E3, size: 0x8, addend: 0x0, symName: __ZNSt3__15dequeIiNS_9allocatorIiEEEC1B8ue170006Ev, symObjAddr: 0x550, symBinAddr: 0x1000036F0, symSize: 0x2C }
  - { offsetInCU: 0x1160D, offset: 0x1160D, size: 0x8, addend: 0x0, symName: __ZNSt3__15dequeIiNS_9allocatorIiEEE9push_backERKi, symObjAddr: 0x57C, symBinAddr: 0x10000371C, symSize: 0xAC }
  - { offsetInCU: 0x11653, offset: 0x11653, size: 0x8, addend: 0x0, symName: __ZNSt3__15dequeIiNS_9allocatorIiEEE5beginB8ue170006Ev, symObjAddr: 0x628, symBinAddr: 0x1000037C8, symSize: 0xA8 }
  - { offsetInCU: 0x11688, offset: 0x11688, size: 0x8, addend: 0x0, symName: __ZNSt3__15dequeIiNS_9allocatorIiEEE3endB8ue170006Ev, symObjAddr: 0x6D0, symBinAddr: 0x100003870, symSize: 0xBC }
  - { offsetInCU: 0x116D1, offset: 0x116D1, size: 0x8, addend: 0x0, symName: __ZNSt3__15dequeIiNS_9allocatorIiEEEC1INS_16__deque_iteratorIiPiRiPS6_lLl1024EEEEET_SA_PNS_9enable_ifIXsr29__has_input_iterator_categoryISA_EE5valueEvE4typeE, symObjAddr: 0x78C, symBinAddr: 0x10000392C, symSize: 0x54 }
  - { offsetInCU: 0x11730, offset: 0x11730, size: 0x8, addend: 0x0, symName: __ZNSt3__15dequeIiNS_9allocatorIiEEEC1EmRKi, symObjAddr: 0x7E0, symBinAddr: 0x100003980, symSize: 0x3C }
  - { offsetInCU: 0x1177A, offset: 0x1177A, size: 0x8, addend: 0x0, symName: __ZNSt3__15dequeIiNS_9allocatorIiEEEC1ERKS3_, symObjAddr: 0x81C, symBinAddr: 0x1000039BC, symSize: 0x34 }
  - { offsetInCU: 0x117B5, offset: 0x117B5, size: 0x8, addend: 0x0, symName: __ZNSt3__15dequeIiNS_9allocatorIiEEED1B8ue170006Ev, symObjAddr: 0x850, symBinAddr: 0x1000039F0, symSize: 0x2C }
  - { offsetInCU: 0x117DE, offset: 0x117DE, size: 0x8, addend: 0x0, symName: __Z6assignv, symObjAddr: 0x87C, symBinAddr: 0x100003A1C, symSize: 0x1E4 }
  - { offsetInCU: 0x11850, offset: 0x11850, size: 0x8, addend: 0x0, symName: __ZNSt3__15dequeIiNS_9allocatorIiEEEaSERKS3_, symObjAddr: 0xA60, symBinAddr: 0x100003C00, symSize: 0x90 }
  - { offsetInCU: 0x11887, offset: 0x11887, size: 0x8, addend: 0x0, symName: __ZNSt3__15dequeIiNS_9allocatorIiEEE6assignINS_16__deque_iteratorIiPiRiPS6_lLl1024EEEEEvT_SA_PNS_9enable_ifIXsr37__has_random_access_iterator_categoryISA_EE5valueEvE4typeE, symObjAddr: 0xAF0, symBinAddr: 0x100003C90, symSize: 0x68 }
  - { offsetInCU: 0x118E2, offset: 0x118E2, size: 0x8, addend: 0x0, symName: __ZNSt3__15dequeIiNS_9allocatorIiEEE6assignEmRKi, symObjAddr: 0xB58, symBinAddr: 0x100003CF8, symSize: 0x108 }
  - { offsetInCU: 0x11927, offset: 0x11927, size: 0x8, addend: 0x0, symName: __Z4sizev, symObjAddr: 0xC60, symBinAddr: 0x100003E00, symSize: 0x1A0 }
  - { offsetInCU: 0x1196C, offset: 0x1196C, size: 0x8, addend: 0x0, symName: __ZNKSt3__15dequeIiNS_9allocatorIiEEE5emptyB8ue170006Ev, symObjAddr: 0xE00, symBinAddr: 0x100003FA0, symSize: 0x30 }
  - { offsetInCU: 0x11992, offset: 0x11992, size: 0x8, addend: 0x0, symName: __ZNKSt3__15dequeIiNS_9allocatorIiEEE4sizeB8ue170006Ev, symObjAddr: 0xE30, symBinAddr: 0x100003FD0, symSize: 0x28 }
  - { offsetInCU: 0x119B8, offset: 0x119B8, size: 0x8, addend: 0x0, symName: __ZNSt3__15dequeIiNS_9allocatorIiEEE6resizeEm, symObjAddr: 0xE58, symBinAddr: 0x100003FF8, symSize: 0xE8 }
  - { offsetInCU: 0x119EF, offset: 0x119EF, size: 0x8, addend: 0x0, symName: __ZNSt3__15dequeIiNS_9allocatorIiEEE6resizeEmRKi, symObjAddr: 0xF40, symBinAddr: 0x1000040E0, symSize: 0xF0 }
  - { offsetInCU: 0x11A34, offset: 0x11A34, size: 0x8, addend: 0x0, symName: __Z6insertv, symObjAddr: 0x1030, symBinAddr: 0x1000041D0, symSize: 0x2B0 }
  - { offsetInCU: 0x11A6C, offset: 0x11A6C, size: 0x8, addend: 0x0, symName: __ZNSt3__15dequeIiNS_9allocatorIiEEE9push_backEOi, symObjAddr: 0x12E0, symBinAddr: 0x100004480, symSize: 0xAC }
  - { offsetInCU: 0x11AB2, offset: 0x11AB2, size: 0x8, addend: 0x0, symName: __ZNSt3__15dequeIiNS_9allocatorIiEEE10push_frontEOi, symObjAddr: 0x138C, symBinAddr: 0x10000452C, symSize: 0xBC }
  - { offsetInCU: 0x11AF8, offset: 0x11AF8, size: 0x8, addend: 0x0, symName: __ZNSt3__15dequeIiNS_9allocatorIiEEE8pop_backEv, symObjAddr: 0x1448, symBinAddr: 0x1000045E8, symSize: 0xE0 }
  - { offsetInCU: 0x11B5C, offset: 0x11B5C, size: 0x8, addend: 0x0, symName: __ZNSt3__15dequeIiNS_9allocatorIiEEE9pop_frontEv, symObjAddr: 0x1528, symBinAddr: 0x1000046C8, symSize: 0xD4 }
  - { offsetInCU: 0x11BB1, offset: 0x11BB1, size: 0x8, addend: 0x0, symName: __ZNSt3__15dequeIiNS_9allocatorIiEEE6insertENS_16__deque_iteratorIiPKiRS5_PKS6_lLl1024EEEOi, symObjAddr: 0x15FC, symBinAddr: 0x10000479C, symSize: 0x47C }
  - { offsetInCU: 0x11CA6, offset: 0x11CA6, size: 0x8, addend: 0x0, symName: __ZNSt3__116__deque_iteratorIiPKiRS1_PKS2_lLl1024EEC1B8ue170006IPiRiPS8_EERKNS0_IiT_T0_T1_lLl1024EEEPNS_9enable_ifIXsr14is_convertibleISB_S2_EE5valueEvE4typeE, symObjAddr: 0x1A78, symBinAddr: 0x100004C18, symSize: 0x3C }
  - { offsetInCU: 0x11D06, offset: 0x11D06, size: 0x8, addend: 0x0, symName: __ZNSt3__15dequeIiNS_9allocatorIiEEE6insertENS_16__deque_iteratorIiPKiRS5_PKS6_lLl1024EEEmS7_, symObjAddr: 0x1AB4, symBinAddr: 0x100004C54, symSize: 0x570 }
  - { offsetInCU: 0x11EA0, offset: 0x11EA0, size: 0x8, addend: 0x0, symName: __ZNSt3__15dequeIiNS_9allocatorIiEEE6insertINS_16__deque_iteratorIiPiRiPS6_lLl1024EEEEES9_NS5_IiPKiRSA_PKSB_lLl1024EEET_SG_PNS_9enable_ifIXsr37__has_bidirectional_iterator_categoryISG_EE5valueEvE4typeE, symObjAddr: 0x2024, symBinAddr: 0x1000051C4, symSize: 0xB0 }
  - { offsetInCU: 0x11F0B, offset: 0x11F0B, size: 0x8, addend: 0x0, symName: __Z5erasev, symObjAddr: 0x20D4, symBinAddr: 0x100005274, symSize: 0x1C8 }
  - { offsetInCU: 0x11F43, offset: 0x11F43, size: 0x8, addend: 0x0, symName: __ZNSt3__116__deque_iteratorIiPiRiPS1_lLl1024EEppB8ue170006Ei, symObjAddr: 0x229C, symBinAddr: 0x10000543C, symSize: 0x38 }
  - { offsetInCU: 0x11F84, offset: 0x11F84, size: 0x8, addend: 0x0, symName: __ZNSt3__15dequeIiNS_9allocatorIiEEE5eraseENS_16__deque_iteratorIiPKiRS5_PKS6_lLl1024EEE, symObjAddr: 0x22D4, symBinAddr: 0x100005474, symSize: 0x298 }
  - { offsetInCU: 0x12038, offset: 0x12038, size: 0x8, addend: 0x0, symName: __ZNSt3__15dequeIiNS_9allocatorIiEEE5eraseENS_16__deque_iteratorIiPKiRS5_PKS6_lLl1024EEESA_, symObjAddr: 0x256C, symBinAddr: 0x10000570C, symSize: 0x360 }
  - { offsetInCU: 0x12156, offset: 0x12156, size: 0x8, addend: 0x0, symName: __Z9fetchdatav, symObjAddr: 0x28CC, symBinAddr: 0x100005A6C, symSize: 0x228 }
  - { offsetInCU: 0x121D5, offset: 0x121D5, size: 0x8, addend: 0x0, symName: __ZNSt3__15dequeIiNS_9allocatorIiEEEixEm, symObjAddr: 0x2AF4, symBinAddr: 0x100005C94, symSize: 0x5C }
  - { offsetInCU: 0x1221B, offset: 0x1221B, size: 0x8, addend: 0x0, symName: __ZNSt3__15dequeIiNS_9allocatorIiEEE2atEm, symObjAddr: 0x2B50, symBinAddr: 0x100005CF0, symSize: 0x90 }
  - { offsetInCU: 0x12261, offset: 0x12261, size: 0x8, addend: 0x0, symName: __ZNSt3__15dequeIiNS_9allocatorIiEEE5frontEv, symObjAddr: 0x2BE0, symBinAddr: 0x100005D80, symSize: 0x50 }
  - { offsetInCU: 0x12289, offset: 0x12289, size: 0x8, addend: 0x0, symName: __ZNSt3__15dequeIiNS_9allocatorIiEEE4backEv, symObjAddr: 0x2C30, symBinAddr: 0x100005DD0, symSize: 0x68 }
  - { offsetInCU: 0x122BF, offset: 0x122BF, size: 0x8, addend: 0x0, symName: __Z4sortv, symObjAddr: 0x2C98, symBinAddr: 0x100005E38, symSize: 0x104 }
  - { offsetInCU: 0x122E8, offset: 0x122E8, size: 0x8, addend: 0x0, symName: _main, symObjAddr: 0x2DE8, symBinAddr: 0x100005F88, symSize: 0x2C }
  - { offsetInCU: 0x12302, offset: 0x12302, size: 0x8, addend: 0x0, symName: __ZNKSt3__114__split_bufferIPiNS_9allocatorIS1_EEE5beginB8ue170006Ev, symObjAddr: 0x2E14, symBinAddr: 0x100005FB4, symSize: 0x18 }
  - { offsetInCU: 0x12328, offset: 0x12328, size: 0x8, addend: 0x0, symName: __ZNKSt3__114__split_bufferIPiNS_9allocatorIS1_EEE5emptyB8ue170006Ev, symObjAddr: 0x2E2C, symBinAddr: 0x100005FCC, symSize: 0x28 }
  - { offsetInCU: 0x1234E, offset: 0x1234E, size: 0x8, addend: 0x0, symName: __ZNSt3__116__deque_iteratorIiPKiRS1_PKS2_lLl1024EEC1B8ue170006ES5_S2_, symObjAddr: 0x2E60, symBinAddr: 0x100006000, symSize: 0x3C }
  - { offsetInCU: 0x12396, offset: 0x12396, size: 0x8, addend: 0x0, symName: __ZNSt3__116__deque_iteratorIiPKiRS1_PKS2_lLl1024EEC2B8ue170006ES5_S2_, symObjAddr: 0x2E9C, symBinAddr: 0x10000603C, symSize: 0x2C }
  - { offsetInCU: 0x123DE, offset: 0x123DE, size: 0x8, addend: 0x0, symName: __ZNSt3__116__deque_iteratorIiPKiRS1_PKS2_lLl1024EEppB8ue170006Ev, symObjAddr: 0x2EF8, symBinAddr: 0x100006098, symSize: 0x70 }
  - { offsetInCU: 0x12404, offset: 0x12404, size: 0x8, addend: 0x0, symName: __ZNSt3__111char_traitsIcE6lengthB8ue170006EPKc, symObjAddr: 0x3154, symBinAddr: 0x1000062F4, symSize: 0x34 }
  - { offsetInCU: 0x12445, offset: 0x12445, size: 0x8, addend: 0x0, symName: __ZNKSt3__113basic_ostreamIcNS_11char_traitsIcEEE6sentrycvbB8ue170006Ev, symObjAddr: 0x3188, symBinAddr: 0x100006328, symSize: 0x1C }
  - { offsetInCU: 0x1246B, offset: 0x1246B, size: 0x8, addend: 0x0, symName: __ZNSt3__119ostreambuf_iteratorIcNS_11char_traitsIcEEEC1B8ue170006ERNS_13basic_ostreamIcS2_EE, symObjAddr: 0x33E4, symBinAddr: 0x100006584, symSize: 0x34 }
  - { offsetInCU: 0x124A3, offset: 0x124A3, size: 0x8, addend: 0x0, symName: __ZNKSt3__18ios_base5flagsB8ue170006Ev, symObjAddr: 0x3418, symBinAddr: 0x1000065B8, symSize: 0x18 }
  - { offsetInCU: 0x124CB, offset: 0x124CB, size: 0x8, addend: 0x0, symName: __ZNKSt3__19basic_iosIcNS_11char_traitsIcEEE4fillB8ue170006Ev, symObjAddr: 0x3430, symBinAddr: 0x1000065D0, symSize: 0x64 }
  - { offsetInCU: 0x124F3, offset: 0x124F3, size: 0x8, addend: 0x0, symName: __ZNKSt3__119ostreambuf_iteratorIcNS_11char_traitsIcEEE6failedB8ue170006Ev, symObjAddr: 0x3494, symBinAddr: 0x100006634, symSize: 0x24 }
  - { offsetInCU: 0x12519, offset: 0x12519, size: 0x8, addend: 0x0, symName: __ZNSt3__19basic_iosIcNS_11char_traitsIcEEE8setstateB8ue170006Ej, symObjAddr: 0x34B8, symBinAddr: 0x100006658, symSize: 0x2C }
  - { offsetInCU: 0x1254E, offset: 0x1254E, size: 0x8, addend: 0x0, symName: __ZNKSt3__18ios_base5widthB8ue170006Ev, symObjAddr: 0x34E4, symBinAddr: 0x100006684, symSize: 0x18 }
  - { offsetInCU: 0x12576, offset: 0x12576, size: 0x8, addend: 0x0, symName: __ZNSt3__115basic_streambufIcNS_11char_traitsIcEEE5sputnB8ue170006EPKcl, symObjAddr: 0x34FC, symBinAddr: 0x10000669C, symSize: 0x3C }
  - { offsetInCU: 0x125B8, offset: 0x125B8, size: 0x8, addend: 0x0, symName: __ZNSt3__112basic_stringIcNS_11char_traitsIcEENS_9allocatorIcEEEC1B8ue170006Emc, symObjAddr: 0x3538, symBinAddr: 0x1000066D8, symSize: 0x3C }
  - { offsetInCU: 0x12600, offset: 0x12600, size: 0x8, addend: 0x0, symName: __ZNKSt3__112basic_stringIcNS_11char_traitsIcEENS_9allocatorIcEEE4dataB8ue170006Ev, symObjAddr: 0x3574, symBinAddr: 0x100006714, symSize: 0x28 }
  - { offsetInCU: 0x12626, offset: 0x12626, size: 0x8, addend: 0x0, symName: __ZNSt3__18ios_base5widthB8ue170006El, symObjAddr: 0x359C, symBinAddr: 0x10000673C, symSize: 0x2C }
  - { offsetInCU: 0x1266C, offset: 0x1266C, size: 0x8, addend: 0x0, symName: __ZNSt3__112basic_stringIcNS_11char_traitsIcEENS_9allocatorIcEEEC2B8ue170006Emc, symObjAddr: 0x35C8, symBinAddr: 0x100006768, symSize: 0x4C }
  - { offsetInCU: 0x126B9, offset: 0x126B9, size: 0x8, addend: 0x0, symName: __ZNSt3__117__compressed_pairINS_12basic_stringIcNS_11char_traitsIcEENS_9allocatorIcEEE5__repES5_EC1B8ue170006INS_18__default_init_tagESA_EEOT_OT0_, symObjAddr: 0x3614, symBinAddr: 0x1000067B4, symSize: 0x3C }
  - { offsetInCU: 0x12711, offset: 0x12711, size: 0x8, addend: 0x0, symName: __ZNSt3__117__compressed_pairINS_12basic_stringIcNS_11char_traitsIcEENS_9allocatorIcEEE5__repES5_EC2B8ue170006INS_18__default_init_tagESA_EEOT_OT0_, symObjAddr: 0x3650, symBinAddr: 0x1000067F0, symSize: 0x3C }
  - { offsetInCU: 0x12769, offset: 0x12769, size: 0x8, addend: 0x0, symName: __ZNSt3__122__compressed_pair_elemINS_12basic_stringIcNS_11char_traitsIcEENS_9allocatorIcEEE5__repELi0ELb0EEC2B8ue170006ENS_18__default_init_tagE, symObjAddr: 0x368C, symBinAddr: 0x10000682C, symSize: 0x14 }
  - { offsetInCU: 0x1279D, offset: 0x1279D, size: 0x8, addend: 0x0, symName: __ZNSt3__122__compressed_pair_elemINS_9allocatorIcEELi1ELb1EEC2B8ue170006ENS_18__default_init_tagE, symObjAddr: 0x36A0, symBinAddr: 0x100006840, symSize: 0x2C }
  - { offsetInCU: 0x127D1, offset: 0x127D1, size: 0x8, addend: 0x0, symName: __ZNSt3__19allocatorIcEC2B8ue170006Ev, symObjAddr: 0x36CC, symBinAddr: 0x10000686C, symSize: 0x2C }
  - { offsetInCU: 0x127FB, offset: 0x127FB, size: 0x8, addend: 0x0, symName: __ZNSt3__116__non_trivial_ifILb1ENS_9allocatorIcEEEC2B8ue170006Ev, symObjAddr: 0x36F8, symBinAddr: 0x100006898, symSize: 0x14 }
  - { offsetInCU: 0x12825, offset: 0x12825, size: 0x8, addend: 0x0, symName: __ZNKSt3__112basic_stringIcNS_11char_traitsIcEENS_9allocatorIcEEE13__get_pointerB8ue170006Ev, symObjAddr: 0x3720, symBinAddr: 0x1000068C0, symSize: 0x54 }
  - { offsetInCU: 0x1284B, offset: 0x1284B, size: 0x8, addend: 0x0, symName: __ZNKSt3__112basic_stringIcNS_11char_traitsIcEENS_9allocatorIcEEE9__is_longB8ue170006Ev, symObjAddr: 0x3774, symBinAddr: 0x100006914, symSize: 0x38 }
  - { offsetInCU: 0x12871, offset: 0x12871, size: 0x8, addend: 0x0, symName: __ZNKSt3__112basic_stringIcNS_11char_traitsIcEENS_9allocatorIcEEE18__get_long_pointerB8ue170006Ev, symObjAddr: 0x37AC, symBinAddr: 0x10000694C, symSize: 0x28 }
  - { offsetInCU: 0x12897, offset: 0x12897, size: 0x8, addend: 0x0, symName: __ZNKSt3__112basic_stringIcNS_11char_traitsIcEENS_9allocatorIcEEE19__get_short_pointerB8ue170006Ev, symObjAddr: 0x37D4, symBinAddr: 0x100006974, symSize: 0x28 }
  - { offsetInCU: 0x128BD, offset: 0x128BD, size: 0x8, addend: 0x0, symName: __ZNKSt3__117__compressed_pairINS_12basic_stringIcNS_11char_traitsIcEENS_9allocatorIcEEE5__repES5_E5firstB8ue170006Ev, symObjAddr: 0x37FC, symBinAddr: 0x10000699C, symSize: 0x24 }
  - { offsetInCU: 0x128E3, offset: 0x128E3, size: 0x8, addend: 0x0, symName: __ZNKSt3__122__compressed_pair_elemINS_12basic_stringIcNS_11char_traitsIcEENS_9allocatorIcEEE5__repELi0ELb0EE5__getB8ue170006Ev, symObjAddr: 0x3820, symBinAddr: 0x1000069C0, symSize: 0x14 }
  - { offsetInCU: 0x12909, offset: 0x12909, size: 0x8, addend: 0x0, symName: __ZNSt3__114pointer_traitsIPKcE10pointer_toB8ue170006ERS1_, symObjAddr: 0x3834, symBinAddr: 0x1000069D4, symSize: 0x14 }
  - { offsetInCU: 0x1292C, offset: 0x1292C, size: 0x8, addend: 0x0, symName: __ZNSt3__119ostreambuf_iteratorIcNS_11char_traitsIcEEEC2B8ue170006ERNS_13basic_ostreamIcS2_EE, symObjAddr: 0x3848, symBinAddr: 0x1000069E8, symSize: 0x54 }
  - { offsetInCU: 0x12964, offset: 0x12964, size: 0x8, addend: 0x0, symName: __ZNKSt3__19basic_iosIcNS_11char_traitsIcEEE5rdbufB8ue170006Ev, symObjAddr: 0x389C, symBinAddr: 0x100006A3C, symSize: 0x24 }
  - { offsetInCU: 0x1298C, offset: 0x1298C, size: 0x8, addend: 0x0, symName: __ZNKSt3__18ios_base5rdbufB8ue170006Ev, symObjAddr: 0x38C0, symBinAddr: 0x100006A60, symSize: 0x18 }
  - { offsetInCU: 0x129B2, offset: 0x129B2, size: 0x8, addend: 0x0, symName: __ZNSt3__111char_traitsIcE11eq_int_typeB8ue170006Eii, symObjAddr: 0x38D8, symBinAddr: 0x100006A78, symSize: 0x28 }
  - { offsetInCU: 0x129E5, offset: 0x129E5, size: 0x8, addend: 0x0, symName: __ZNSt3__111char_traitsIcE3eofB8ue170006Ev, symObjAddr: 0x3900, symBinAddr: 0x100006AA0, symSize: 0x8 }
  - { offsetInCU: 0x129F9, offset: 0x129F9, size: 0x8, addend: 0x0, symName: __ZNKSt3__19basic_iosIcNS_11char_traitsIcEEE5widenB8ue170006Ec, symObjAddr: 0x3908, symBinAddr: 0x100006AA8, symSize: 0x84 }
  - { offsetInCU: 0x12A62, offset: 0x12A62, size: 0x8, addend: 0x0, symName: __ZNKSt3__15ctypeIcE5widenB8ue170006Ec, symObjAddr: 0x39B8, symBinAddr: 0x100006B58, symSize: 0x38 }
  - { offsetInCU: 0x12A97, offset: 0x12A97, size: 0x8, addend: 0x0, symName: __ZNSt3__18ios_base8setstateB8ue170006Ej, symObjAddr: 0x39F0, symBinAddr: 0x100006B90, symSize: 0x34 }
  - { offsetInCU: 0x12ACE, offset: 0x12ACE, size: 0x8, addend: 0x0, symName: __ZNSt3__15dequeIiNS_9allocatorIiEEEC2B8ue170006Ev, symObjAddr: 0x3A48, symBinAddr: 0x100006BE8, symSize: 0x5C }
  - { offsetInCU: 0x12AF8, offset: 0x12AF8, size: 0x8, addend: 0x0, symName: __ZNSt3__114__split_bufferIPiNS_9allocatorIS1_EEEC1B8ue170006Ev, symObjAddr: 0x3AA4, symBinAddr: 0x100006C44, symSize: 0x2C }
  - { offsetInCU: 0x12B27, offset: 0x12B27, size: 0x8, addend: 0x0, symName: __ZNSt3__117__compressed_pairImNS_9allocatorIiEEEC1B8ue170006IiNS_18__default_init_tagEEEOT_OT0_, symObjAddr: 0x3AD0, symBinAddr: 0x100006C70, symSize: 0x3C }
  - { offsetInCU: 0x12B7F, offset: 0x12B7F, size: 0x8, addend: 0x0, symName: __ZNKSt3__15dequeIiNS_9allocatorIiEEE14__annotate_newB8ue170006Em, symObjAddr: 0x3B0C, symBinAddr: 0x100006CAC, symSize: 0xC8 }
  - { offsetInCU: 0x12BB4, offset: 0x12BB4, size: 0x8, addend: 0x0, symName: __ZNSt3__114__split_bufferIPiNS_9allocatorIS1_EEEC2B8ue170006Ev, symObjAddr: 0x3BD4, symBinAddr: 0x100006D74, symSize: 0x50 }
  - { offsetInCU: 0x12BE3, offset: 0x12BE3, size: 0x8, addend: 0x0, symName: __ZNSt3__117__compressed_pairIPPiNS_9allocatorIS1_EEEC1B8ue170006IDnNS_18__default_init_tagEEEOT_OT0_, symObjAddr: 0x3C24, symBinAddr: 0x100006DC4, symSize: 0x3C }
  - { offsetInCU: 0x12C3B, offset: 0x12C3B, size: 0x8, addend: 0x0, symName: __ZNSt3__117__compressed_pairIPPiNS_9allocatorIS1_EEEC2B8ue170006IDnNS_18__default_init_tagEEEOT_OT0_, symObjAddr: 0x3C60, symBinAddr: 0x100006E00, symSize: 0x40 }
  - { offsetInCU: 0x12C93, offset: 0x12C93, size: 0x8, addend: 0x0, symName: __ZNSt3__122__compressed_pair_elemIPPiLi0ELb0EEC2B8ue170006IDnvEEOT_, symObjAddr: 0x3CA0, symBinAddr: 0x100006E40, symSize: 0x1C }
  - { offsetInCU: 0x12CD5, offset: 0x12CD5, size: 0x8, addend: 0x0, symName: __ZNSt3__122__compressed_pair_elemINS_9allocatorIPiEELi1ELb1EEC2B8ue170006ENS_18__default_init_tagE, symObjAddr: 0x3CBC, symBinAddr: 0x100006E5C, symSize: 0x2C }
  - { offsetInCU: 0x12D09, offset: 0x12D09, size: 0x8, addend: 0x0, symName: __ZNSt3__19allocatorIPiEC2B8ue170006Ev, symObjAddr: 0x3CE8, symBinAddr: 0x100006E88, symSize: 0x2C }
  - { offsetInCU: 0x12D33, offset: 0x12D33, size: 0x8, addend: 0x0, symName: __ZNSt3__116__non_trivial_ifILb1ENS_9allocatorIPiEEEC2B8ue170006Ev, symObjAddr: 0x3D14, symBinAddr: 0x100006EB4, symSize: 0x14 }
  - { offsetInCU: 0x12D5D, offset: 0x12D5D, size: 0x8, addend: 0x0, symName: __ZNSt3__117__compressed_pairImNS_9allocatorIiEEEC2B8ue170006IiNS_18__default_init_tagEEEOT_OT0_, symObjAddr: 0x3D28, symBinAddr: 0x100006EC8, symSize: 0x40 }
  - { offsetInCU: 0x12DB5, offset: 0x12DB5, size: 0x8, addend: 0x0, symName: __ZNSt3__122__compressed_pair_elemImLi0ELb0EEC2B8ue170006IivEEOT_, symObjAddr: 0x3D68, symBinAddr: 0x100006F08, symSize: 0x24 }
  - { offsetInCU: 0x12DF7, offset: 0x12DF7, size: 0x8, addend: 0x0, symName: __ZNSt3__122__compressed_pair_elemINS_9allocatorIiEELi1ELb1EEC2B8ue170006ENS_18__default_init_tagE, symObjAddr: 0x3D8C, symBinAddr: 0x100006F2C, symSize: 0x2C }
  - { offsetInCU: 0x12E2B, offset: 0x12E2B, size: 0x8, addend: 0x0, symName: __ZNSt3__19allocatorIiEC2B8ue170006Ev, symObjAddr: 0x3DB8, symBinAddr: 0x100006F58, symSize: 0x2C }
  - { offsetInCU: 0x12E55, offset: 0x12E55, size: 0x8, addend: 0x0, symName: __ZNSt3__116__non_trivial_ifILb1ENS_9allocatorIiEEEC2B8ue170006Ev, symObjAddr: 0x3DE4, symBinAddr: 0x100006F84, symSize: 0x14 }
  - { offsetInCU: 0x12E7F, offset: 0x12E7F, size: 0x8, addend: 0x0, symName: __ZNKSt3__15dequeIiNS_9allocatorIiEEE18__annotate_from_toB8ue170006EmmNS3_22__asan_annotation_typeENS3_23__asan_annotation_placeE, symObjAddr: 0x3DF8, symBinAddr: 0x100006F98, symSize: 0x580 }
  - { offsetInCU: 0x1303B, offset: 0x1303B, size: 0x8, addend: 0x0, symName: __ZNKSt3__114__split_bufferIPiNS_9allocatorIS1_EEE4sizeB8ue170006Ev, symObjAddr: 0x4378, symBinAddr: 0x100007518, symSize: 0x28 }
  - { offsetInCU: 0x13061, offset: 0x13061, size: 0x8, addend: 0x0, symName: __ZNKSt3__15dequeIiNS_9allocatorIiEEE44__annotate_double_ended_contiguous_containerB8ue170006EPKvS5_S5_S5_S5_S5_, symObjAddr: 0x43B4, symBinAddr: 0x100007554, symSize: 0x28 }
  - { offsetInCU: 0x130CF, offset: 0x130CF, size: 0x8, addend: 0x0, symName: __ZNSt3__15dequeIiNS_9allocatorIiEEED2B8ue170006Ev, symObjAddr: 0x43DC, symBinAddr: 0x10000757C, symSize: 0xA4 }
  - { offsetInCU: 0x13125, offset: 0x13125, size: 0x8, addend: 0x0, symName: __ZNSt3__15dequeIiNS_9allocatorIiEEE5clearEv, symObjAddr: 0x4480, symBinAddr: 0x100007620, symSize: 0x180 }
  - { offsetInCU: 0x13180, offset: 0x13180, size: 0x8, addend: 0x0, symName: __ZNKSt3__15dequeIiNS_9allocatorIiEEE17__annotate_deleteB8ue170006Ev, symObjAddr: 0x4600, symBinAddr: 0x1000077A0, symSize: 0xE8 }
  - { offsetInCU: 0x131C3, offset: 0x131C3, size: 0x8, addend: 0x0, symName: __ZNSt3__114__split_bufferIPiNS_9allocatorIS1_EEE5beginB8ue170006Ev, symObjAddr: 0x46E8, symBinAddr: 0x100007888, symSize: 0x18 }
  - { offsetInCU: 0x131E9, offset: 0x131E9, size: 0x8, addend: 0x0, symName: __ZNSt3__114__split_bufferIPiNS_9allocatorIS1_EEE3endB8ue170006Ev, symObjAddr: 0x4700, symBinAddr: 0x1000078A0, symSize: 0x18 }
  - { offsetInCU: 0x1320F, offset: 0x1320F, size: 0x8, addend: 0x0, symName: __ZNSt3__116allocator_traitsINS_9allocatorIiEEE10deallocateB8ue170006ERS2_Pim, symObjAddr: 0x4718, symBinAddr: 0x1000078B8, symSize: 0x34 }
  - { offsetInCU: 0x13251, offset: 0x13251, size: 0x8, addend: 0x0, symName: __ZNSt3__15dequeIiNS_9allocatorIiEEE7__allocB8ue170006Ev, symObjAddr: 0x474C, symBinAddr: 0x1000078EC, symSize: 0x28 }
  - { offsetInCU: 0x13277, offset: 0x13277, size: 0x8, addend: 0x0, symName: __ZNSt3__114__split_bufferIPiNS_9allocatorIS1_EEED1Ev, symObjAddr: 0x4774, symBinAddr: 0x100007914, symSize: 0x2C }
  - { offsetInCU: 0x132A3, offset: 0x132A3, size: 0x8, addend: 0x0, symName: __ZNSt3__116allocator_traitsINS_9allocatorIiEEE7destroyB8ue170006IivEEvRS2_PT_, symObjAddr: 0x47D4, symBinAddr: 0x100007974, symSize: 0x2C }
  - { offsetInCU: 0x132E0, offset: 0x132E0, size: 0x8, addend: 0x0, symName: __ZNKSt3__116__deque_iteratorIiPiRiPS1_lLl1024EEdeB8ue170006Ev, symObjAddr: 0x4800, symBinAddr: 0x1000079A0, symSize: 0x18 }
  - { offsetInCU: 0x13306, offset: 0x13306, size: 0x8, addend: 0x0, symName: __ZNSt3__116__deque_iteratorIiPiRiPS1_lLl1024EEppB8ue170006Ev, symObjAddr: 0x4818, symBinAddr: 0x1000079B8, symSize: 0x70 }
  - { offsetInCU: 0x1332C, offset: 0x1332C, size: 0x8, addend: 0x0, symName: __ZNSt3__15dequeIiNS_9allocatorIiEEE6__sizeB8ue170006Ev, symObjAddr: 0x4888, symBinAddr: 0x100007A28, symSize: 0x28 }
  - { offsetInCU: 0x13352, offset: 0x13352, size: 0x8, addend: 0x0, symName: __ZNSt3__114__split_bufferIPiNS_9allocatorIS1_EEE5frontB8ue170006Ev, symObjAddr: 0x48B0, symBinAddr: 0x100007A50, symSize: 0x18 }
  - { offsetInCU: 0x13378, offset: 0x13378, size: 0x8, addend: 0x0, symName: __ZNSt3__114__split_bufferIPiNS_9allocatorIS1_EEE9pop_frontB8ue170006Ev, symObjAddr: 0x48C8, symBinAddr: 0x100007A68, symSize: 0x2C }
  - { offsetInCU: 0x1339E, offset: 0x1339E, size: 0x8, addend: 0x0, symName: __ZNSt3__19allocatorIiE7destroyB8ue170006EPi, symObjAddr: 0x4924, symBinAddr: 0x100007AC4, symSize: 0x14 }
  - { offsetInCU: 0x133D2, offset: 0x133D2, size: 0x8, addend: 0x0, symName: __ZNSt3__117__compressed_pairImNS_9allocatorIiEEE5firstB8ue170006Ev, symObjAddr: 0x4938, symBinAddr: 0x100007AD8, symSize: 0x24 }
  - { offsetInCU: 0x133F8, offset: 0x133F8, size: 0x8, addend: 0x0, symName: __ZNSt3__122__compressed_pair_elemImLi0ELb0EE5__getB8ue170006Ev, symObjAddr: 0x495C, symBinAddr: 0x100007AFC, symSize: 0x14 }
  - { offsetInCU: 0x1341E, offset: 0x1341E, size: 0x8, addend: 0x0, symName: __ZNSt3__114__split_bufferIPiNS_9allocatorIS1_EEE19__destruct_at_beginB8ue170006EPS1_, symObjAddr: 0x4970, symBinAddr: 0x100007B10, symSize: 0x2C }
  - { offsetInCU: 0x13452, offset: 0x13452, size: 0x8, addend: 0x0, symName: __ZNSt3__114__split_bufferIPiNS_9allocatorIS1_EEE19__destruct_at_beginEPS1_NS_17integral_constantIbLb1EEE, symObjAddr: 0x499C, symBinAddr: 0x100007B3C, symSize: 0x20 }
  - { offsetInCU: 0x13492, offset: 0x13492, size: 0x8, addend: 0x0, symName: __ZNKSt3__15dequeIiNS_9allocatorIiEEE22__annotate_whole_blockB8ue170006EmNS3_22__asan_annotation_typeE, symObjAddr: 0x49BC, symBinAddr: 0x100007B5C, symSize: 0xAC }
  - { offsetInCU: 0x13503, offset: 0x13503, size: 0x8, addend: 0x0, symName: __ZNKSt3__15dequeIiNS_9allocatorIiEEE23__annotate_poison_blockB8ue170006EPKvS5_, symObjAddr: 0x4A68, symBinAddr: 0x100007C08, symSize: 0x44 }
  - { offsetInCU: 0x13547, offset: 0x13547, size: 0x8, addend: 0x0, symName: __ZNSt3__19allocatorIiE10deallocateB8ue170006EPim, symObjAddr: 0x4AAC, symBinAddr: 0x100007C4C, symSize: 0x40 }
  - { offsetInCU: 0x13589, offset: 0x13589, size: 0x8, addend: 0x0, symName: __ZNSt3__117__compressed_pairImNS_9allocatorIiEEE6secondB8ue170006Ev, symObjAddr: 0x4B68, symBinAddr: 0x100007D08, symSize: 0x24 }
  - { offsetInCU: 0x135AF, offset: 0x135AF, size: 0x8, addend: 0x0, symName: __ZNSt3__122__compressed_pair_elemINS_9allocatorIiEELi1ELb1EE5__getB8ue170006Ev, symObjAddr: 0x4B8C, symBinAddr: 0x100007D2C, symSize: 0x14 }
  - { offsetInCU: 0x135D5, offset: 0x135D5, size: 0x8, addend: 0x0, symName: __ZNSt3__114__split_bufferIPiNS_9allocatorIS1_EEED2Ev, symObjAddr: 0x4BA0, symBinAddr: 0x100007D40, symSize: 0x8C }
  - { offsetInCU: 0x13601, offset: 0x13601, size: 0x8, addend: 0x0, symName: __ZNSt3__114__split_bufferIPiNS_9allocatorIS1_EEE5clearB8ue170006Ev, symObjAddr: 0x4C2C, symBinAddr: 0x100007DCC, symSize: 0x28 }
  - { offsetInCU: 0x13627, offset: 0x13627, size: 0x8, addend: 0x0, symName: __ZNSt3__116allocator_traitsINS_9allocatorIPiEEE10deallocateB8ue170006ERS3_PS2_m, symObjAddr: 0x4C54, symBinAddr: 0x100007DF4, symSize: 0x34 }
  - { offsetInCU: 0x13669, offset: 0x13669, size: 0x8, addend: 0x0, symName: __ZNSt3__114__split_bufferIPiNS_9allocatorIS1_EEE7__allocB8ue170006Ev, symObjAddr: 0x4C88, symBinAddr: 0x100007E28, symSize: 0x28 }
  - { offsetInCU: 0x1368F, offset: 0x1368F, size: 0x8, addend: 0x0, symName: __ZNKSt3__114__split_bufferIPiNS_9allocatorIS1_EEE8capacityB8ue170006Ev, symObjAddr: 0x4CB0, symBinAddr: 0x100007E50, symSize: 0x40 }
  - { offsetInCU: 0x136B5, offset: 0x136B5, size: 0x8, addend: 0x0, symName: __ZNSt3__114__split_bufferIPiNS_9allocatorIS1_EEE17__destruct_at_endB8ue170006EPS1_, symObjAddr: 0x4CF0, symBinAddr: 0x100007E90, symSize: 0x2C }
  - { offsetInCU: 0x136E9, offset: 0x136E9, size: 0x8, addend: 0x0, symName: __ZNSt3__114__split_bufferIPiNS_9allocatorIS1_EEE17__destruct_at_endB8ue170006EPS1_NS_17integral_constantIbLb0EEE, symObjAddr: 0x4D1C, symBinAddr: 0x100007EBC, symSize: 0x80 }
  - { offsetInCU: 0x13729, offset: 0x13729, size: 0x8, addend: 0x0, symName: __ZNSt3__116allocator_traitsINS_9allocatorIPiEEE7destroyB8ue170006IS2_vEEvRS3_PT_, symObjAddr: 0x4D9C, symBinAddr: 0x100007F3C, symSize: 0x2C }
  - { offsetInCU: 0x13766, offset: 0x13766, size: 0x8, addend: 0x0, symName: __ZNSt3__19allocatorIPiE7destroyB8ue170006EPS1_, symObjAddr: 0x4DDC, symBinAddr: 0x100007F7C, symSize: 0x14 }
  - { offsetInCU: 0x1379A, offset: 0x1379A, size: 0x8, addend: 0x0, symName: __ZNSt3__19allocatorIPiE10deallocateB8ue170006EPS1_m, symObjAddr: 0x4DF0, symBinAddr: 0x100007F90, symSize: 0x40 }
  - { offsetInCU: 0x137DC, offset: 0x137DC, size: 0x8, addend: 0x0, symName: __ZNSt3__117__compressed_pairIPPiNS_9allocatorIS1_EEE6secondB8ue170006Ev, symObjAddr: 0x4E30, symBinAddr: 0x100007FD0, symSize: 0x24 }
  - { offsetInCU: 0x13802, offset: 0x13802, size: 0x8, addend: 0x0, symName: __ZNSt3__122__compressed_pair_elemINS_9allocatorIPiEELi1ELb1EE5__getB8ue170006Ev, symObjAddr: 0x4E54, symBinAddr: 0x100007FF4, symSize: 0x14 }
  - { offsetInCU: 0x13828, offset: 0x13828, size: 0x8, addend: 0x0, symName: __ZNKSt3__114__split_bufferIPiNS_9allocatorIS1_EEE9__end_capB8ue170006Ev, symObjAddr: 0x4E68, symBinAddr: 0x100008008, symSize: 0x28 }
  - { offsetInCU: 0x1384E, offset: 0x1384E, size: 0x8, addend: 0x0, symName: __ZNKSt3__117__compressed_pairIPPiNS_9allocatorIS1_EEE5firstB8ue170006Ev, symObjAddr: 0x4E90, symBinAddr: 0x100008030, symSize: 0x24 }
  - { offsetInCU: 0x13874, offset: 0x13874, size: 0x8, addend: 0x0, symName: __ZNKSt3__122__compressed_pair_elemIPPiLi0ELb0EE5__getB8ue170006Ev, symObjAddr: 0x4EB4, symBinAddr: 0x100008054, symSize: 0x14 }
  - { offsetInCU: 0x1389A, offset: 0x1389A, size: 0x8, addend: 0x0, symName: __ZNKSt3__15dequeIiNS_9allocatorIiEEE12__back_spareB8ue170006Ev, symObjAddr: 0x4EC8, symBinAddr: 0x100008068, symSize: 0x54 }
  - { offsetInCU: 0x138C0, offset: 0x138C0, size: 0x8, addend: 0x0, symName: __ZNSt3__15dequeIiNS_9allocatorIiEEE19__add_back_capacityEv, symObjAddr: 0x4F1C, symBinAddr: 0x1000080BC, symSize: 0x34C }
  - { offsetInCU: 0x13975, offset: 0x13975, size: 0x8, addend: 0x0, symName: __ZNKSt3__15dequeIiNS_9allocatorIiEEE24__annotate_increase_backB8ue170006Em, symObjAddr: 0x5268, symBinAddr: 0x100008408, symSize: 0x7C }
  - { offsetInCU: 0x139AA, offset: 0x139AA, size: 0x8, addend: 0x0, symName: __ZNSt3__116allocator_traitsINS_9allocatorIiEEE9constructB8ue170006IiJRKiEvEEvRS2_PT_DpOT0_, symObjAddr: 0x52E4, symBinAddr: 0x100008484, symSize: 0x34 }
  - { offsetInCU: 0x13A01, offset: 0x13A01, size: 0x8, addend: 0x0, symName: __ZNKSt3__15dequeIiNS_9allocatorIiEEE10__capacityB8ue170006Ev, symObjAddr: 0x5318, symBinAddr: 0x1000084B8, symSize: 0x60 }
  - { offsetInCU: 0x13A27, offset: 0x13A27, size: 0x8, addend: 0x0, symName: __ZNKSt3__15dequeIiNS_9allocatorIiEEE13__front_spareB8ue170006Ev, symObjAddr: 0x5378, symBinAddr: 0x100008518, symSize: 0x18 }
  - { offsetInCU: 0x13A4D, offset: 0x13A4D, size: 0x8, addend: 0x0, symName: __ZNSt3__114__split_bufferIPiNS_9allocatorIS1_EEE9push_backB8ue170006ERKS1_, symObjAddr: 0x5390, symBinAddr: 0x100008530, symSize: 0x260 }
  - { offsetInCU: 0x13AC5, offset: 0x13AC5, size: 0x8, addend: 0x0, symName: __ZNKSt3__114__split_bufferIPiNS_9allocatorIS1_EEE12__back_spareB8ue170006Ev, symObjAddr: 0x55F0, symBinAddr: 0x100008790, symSize: 0x40 }
  - { offsetInCU: 0x13AEB, offset: 0x13AEB, size: 0x8, addend: 0x0, symName: __ZNSt3__114__split_bufferIPiNS_9allocatorIS1_EEE9push_backEOS1_, symObjAddr: 0x5630, symBinAddr: 0x1000087D0, symSize: 0x260 }
  - { offsetInCU: 0x13B63, offset: 0x13B63, size: 0x8, addend: 0x0, symName: __ZNSt3__116allocator_traitsINS_9allocatorIiEEE8allocateB8ue170006ERS2_m, symObjAddr: 0x5890, symBinAddr: 0x100008A30, symSize: 0x2C }
  - { offsetInCU: 0x13B96, offset: 0x13B96, size: 0x8, addend: 0x0, symName: __ZNSt3__114__split_bufferIPiNS_9allocatorIS1_EEE10push_frontEOS1_, symObjAddr: 0x58BC, symBinAddr: 0x100008A5C, symSize: 0x25C }
  - { offsetInCU: 0x13C0E, offset: 0x13C0E, size: 0x8, addend: 0x0, symName: __ZNSt3__114__split_bufferIPiRNS_9allocatorIS1_EEEC1EmmS4_, symObjAddr: 0x5B44, symBinAddr: 0x100008CE4, symSize: 0x44 }
  - { offsetInCU: 0x13C69, offset: 0x13C69, size: 0x8, addend: 0x0, symName: __ZNSt3__122__allocator_destructorINS_9allocatorIiEEEC1B8ue170006ERS2_m, symObjAddr: 0x5B88, symBinAddr: 0x100008D28, symSize: 0x3C }
  - { offsetInCU: 0x13D2C, offset: 0x13D2C, size: 0x8, addend: 0x0, symName: __ZNSt3__110unique_ptrIPiNS_22__allocator_destructorINS_9allocatorIiEEEEEC1B8ue170006ILb1EvEES1_NS_16__dependent_typeINS_27__unique_ptr_deleter_sfinaeIS5_EEXT_EE20__good_rval_ref_typeE, symObjAddr: 0x5BC4, symBinAddr: 0x100008D64, symSize: 0x3C }
  - { offsetInCU: 0x13D7D, offset: 0x13D7D, size: 0x8, addend: 0x0, symName: __ZNSt3__114__split_bufferIPiRNS_9allocatorIS1_EEE9push_backEOS1_, symObjAddr: 0x5C00, symBinAddr: 0x100008DA0, symSize: 0x260 }
  - { offsetInCU: 0x13DF5, offset: 0x13DF5, size: 0x8, addend: 0x0, symName: __ZNKSt3__110unique_ptrIPiNS_22__allocator_destructorINS_9allocatorIiEEEEE3getB8ue170006Ev, symObjAddr: 0x5E60, symBinAddr: 0x100009000, symSize: 0x28 }
  - { offsetInCU: 0x13E1B, offset: 0x13E1B, size: 0x8, addend: 0x0, symName: __ZNSt3__110unique_ptrIPiNS_22__allocator_destructorINS_9allocatorIiEEEEE7releaseB8ue170006Ev, symObjAddr: 0x5E88, symBinAddr: 0x100009028, symSize: 0x44 }
  - { offsetInCU: 0x13E50, offset: 0x13E50, size: 0x8, addend: 0x0, symName: __ZNSt3__114__split_bufferIPiRNS_9allocatorIS1_EEE10push_frontERKS1_, symObjAddr: 0x5ECC, symBinAddr: 0x10000906C, symSize: 0x25C }
  - { offsetInCU: 0x13EC8, offset: 0x13EC8, size: 0x8, addend: 0x0, symName: __ZNSt3__114__split_bufferIPiNS_9allocatorIS1_EEE9__end_capB8ue170006Ev, symObjAddr: 0x6164, symBinAddr: 0x100009304, symSize: 0x28 }
  - { offsetInCU: 0x13EEE, offset: 0x13EEE, size: 0x8, addend: 0x0, symName: __ZNSt3__114__split_bufferIPiRNS_9allocatorIS1_EEE9__end_capB8ue170006Ev, symObjAddr: 0x618C, symBinAddr: 0x10000932C, symSize: 0x28 }
  - { offsetInCU: 0x13F14, offset: 0x13F14, size: 0x8, addend: 0x0, symName: __ZNSt3__110unique_ptrIPiNS_22__allocator_destructorINS_9allocatorIiEEEEED1B8ue170006Ev, symObjAddr: 0x61B4, symBinAddr: 0x100009354, symSize: 0x2C }
  - { offsetInCU: 0x13F3E, offset: 0x13F3E, size: 0x8, addend: 0x0, symName: __ZNSt3__114__split_bufferIPiRNS_9allocatorIS1_EEED1Ev, symObjAddr: 0x61E0, symBinAddr: 0x100009380, symSize: 0x2C }
  - { offsetInCU: 0x13F6A, offset: 0x13F6A, size: 0x8, addend: 0x0, symName: __ZNSt3__114__split_bufferIPiRNS_9allocatorIS1_EEE18__construct_at_endINS_13move_iteratorIPS1_EEEENS_9enable_ifIXsr31__has_forward_iterator_categoryIT_EE5valueEvE4typeESB_SB_, symObjAddr: 0x624C, symBinAddr: 0x1000093EC, symSize: 0x60 }
  - { offsetInCU: 0x13FB7, offset: 0x13FB7, size: 0x8, addend: 0x0, symName: __ZNSt3__113move_iteratorIPPiEC1B8ue170006ES2_, symObjAddr: 0x62AC, symBinAddr: 0x10000944C, symSize: 0x34 }
  - { offsetInCU: 0x13FEF, offset: 0x13FEF, size: 0x8, addend: 0x0, symName: __ZNSt3__116allocator_traitsINS_9allocatorIPiEEE9constructB8ue170006IS2_JRKS2_EvEEvRS3_PT_DpOT0_, symObjAddr: 0x62E0, symBinAddr: 0x100009480, symSize: 0x34 }
  - { offsetInCU: 0x14069, offset: 0x14069, size: 0x8, addend: 0x0, symName: __ZNKSt3__114__move_trivialclB8ue170006IPiS2_Li0EEENS_4pairIPT_PT0_EES5_S5_S7_, symObjAddr: 0x64B0, symBinAddr: 0x100009650, symSize: 0x48 }
  - { offsetInCU: 0x140D6, offset: 0x140D6, size: 0x8, addend: 0x0, symName: __ZNSt3__14pairIPPiS2_EC1B8ue170006IRS2_S2_LPv0EEEOT_OT0_, symObjAddr: 0x66D8, symBinAddr: 0x100009878, symSize: 0x3C }
  - { offsetInCU: 0x14134, offset: 0x14134, size: 0x8, addend: 0x0, symName: __ZNSt3__14pairIPPiS2_EC2B8ue170006IRS2_S2_LPv0EEEOT_OT0_, symObjAddr: 0x6714, symBinAddr: 0x1000098B4, symSize: 0x34 }
  - { offsetInCU: 0x14192, offset: 0x14192, size: 0x8, addend: 0x0, symName: __ZNSt3__118__unwrap_iter_implIPPiLb1EE8__unwrapB8ue170006ES2_, symObjAddr: 0x6748, symBinAddr: 0x1000098E8, symSize: 0x24 }
  - { offsetInCU: 0x141B5, offset: 0x141B5, size: 0x8, addend: 0x0, symName: __ZNSt3__14pairIPPiS2_EC1B8ue170006IS2_S2_LPv0EEEOT_OT0_, symObjAddr: 0x676C, symBinAddr: 0x10000990C, symSize: 0x3C }
  - { offsetInCU: 0x14213, offset: 0x14213, size: 0x8, addend: 0x0, symName: __ZNSt3__14pairIPPiS2_EC2B8ue170006IS2_S2_LPv0EEEOT_OT0_, symObjAddr: 0x67A8, symBinAddr: 0x100009948, symSize: 0x34 }
  - { offsetInCU: 0x14271, offset: 0x14271, size: 0x8, addend: 0x0, symName: __ZNSt3__118__unwrap_iter_implIPPiLb1EE8__rewrapB8ue170006ES2_S2_, symObjAddr: 0x67DC, symBinAddr: 0x10000997C, symSize: 0x50 }
  - { offsetInCU: 0x142A2, offset: 0x142A2, size: 0x8, addend: 0x0, symName: __ZNSt3__114__split_bufferIPiRNS_9allocatorIS1_EEE28__construct_at_end_with_sizeINS_13move_iteratorIPS1_EEEEvT_m, symObjAddr: 0x682C, symBinAddr: 0x1000099CC, symSize: 0xDC }
  - { offsetInCU: 0x14308, offset: 0x14308, size: 0x8, addend: 0x0, symName: __ZNSt3__114__split_bufferIPiRNS_9allocatorIS1_EEE21_ConstructTransactionC1B8ue170006EPPS1_m, symObjAddr: 0x6944, symBinAddr: 0x100009AE4, symSize: 0x3C }
  - { offsetInCU: 0x1434E, offset: 0x1434E, size: 0x8, addend: 0x0, symName: __ZNSt3__116allocator_traitsINS_9allocatorIPiEEE9constructB8ue170006IS2_JS2_EvEEvRS3_PT_DpOT0_, symObjAddr: 0x6980, symBinAddr: 0x100009B20, symSize: 0x34 }
  - { offsetInCU: 0x143A5, offset: 0x143A5, size: 0x8, addend: 0x0, symName: __ZNSt3__114__split_bufferIPiRNS_9allocatorIS1_EEE7__allocB8ue170006Ev, symObjAddr: 0x69B4, symBinAddr: 0x100009B54, symSize: 0x28 }
  - { offsetInCU: 0x143CB, offset: 0x143CB, size: 0x8, addend: 0x0, symName: __ZNKSt3__113move_iteratorIPPiEdeB8ue170006Ev, symObjAddr: 0x69DC, symBinAddr: 0x100009B7C, symSize: 0x18 }
  - { offsetInCU: 0x143F1, offset: 0x143F1, size: 0x8, addend: 0x0, symName: __ZNSt3__113move_iteratorIPPiEppB8ue170006Ev, symObjAddr: 0x69F4, symBinAddr: 0x100009B94, symSize: 0x20 }
  - { offsetInCU: 0x14417, offset: 0x14417, size: 0x8, addend: 0x0, symName: __ZNSt3__114__split_bufferIPiRNS_9allocatorIS1_EEE21_ConstructTransactionD1B8ue170006Ev, symObjAddr: 0x6A14, symBinAddr: 0x100009BB4, symSize: 0x2C }
  - { offsetInCU: 0x14441, offset: 0x14441, size: 0x8, addend: 0x0, symName: __ZNSt3__114__split_bufferIPiRNS_9allocatorIS1_EEE21_ConstructTransactionC2B8ue170006EPPS1_m, symObjAddr: 0x6A40, symBinAddr: 0x100009BE0, symSize: 0x44 }
  - { offsetInCU: 0x14487, offset: 0x14487, size: 0x8, addend: 0x0, symName: __ZNSt3__19allocatorIPiE9constructB8ue170006IS1_JS1_EEEvPT_DpOT0_, symObjAddr: 0x6A84, symBinAddr: 0x100009C24, symSize: 0x28 }
  - { offsetInCU: 0x144DD, offset: 0x144DD, size: 0x8, addend: 0x0, symName: __ZNSt3__117__compressed_pairIPPiRNS_9allocatorIS1_EEE6secondB8ue170006Ev, symObjAddr: 0x6AAC, symBinAddr: 0x100009C4C, symSize: 0x28 }
  - { offsetInCU: 0x14503, offset: 0x14503, size: 0x8, addend: 0x0, symName: __ZNSt3__122__compressed_pair_elemIRNS_9allocatorIPiEELi1ELb0EE5__getB8ue170006Ev, symObjAddr: 0x6AD4, symBinAddr: 0x100009C74, symSize: 0x18 }
  - { offsetInCU: 0x14529, offset: 0x14529, size: 0x8, addend: 0x0, symName: __ZNSt3__114__split_bufferIPiRNS_9allocatorIS1_EEE21_ConstructTransactionD2B8ue170006Ev, symObjAddr: 0x6AEC, symBinAddr: 0x100009C8C, symSize: 0x20 }
  - { offsetInCU: 0x14553, offset: 0x14553, size: 0x8, addend: 0x0, symName: __ZNKSt3__113move_iteratorIPPiE4baseB8ue170006Ev, symObjAddr: 0x6B84, symBinAddr: 0x100009D24, symSize: 0x18 }
  - { offsetInCU: 0x14579, offset: 0x14579, size: 0x8, addend: 0x0, symName: __ZNSt3__113move_iteratorIPPiEC2B8ue170006ES2_, symObjAddr: 0x6B9C, symBinAddr: 0x100009D3C, symSize: 0x20 }
  - { offsetInCU: 0x145B1, offset: 0x145B1, size: 0x8, addend: 0x0, symName: __ZNSt3__19allocatorIPiE9constructB8ue170006IS1_JRKS1_EEEvPT_DpOT0_, symObjAddr: 0x6BBC, symBinAddr: 0x100009D5C, symSize: 0x28 }
  - { offsetInCU: 0x14607, offset: 0x14607, size: 0x8, addend: 0x0, symName: __ZNSt3__19allocatorIiE8allocateB8ue170006Em, symObjAddr: 0x6BE4, symBinAddr: 0x100009D84, symSize: 0x58 }
  - { offsetInCU: 0x14645, offset: 0x14645, size: 0x8, addend: 0x0, symName: __ZNSt3__116allocator_traitsINS_9allocatorIiEEE8max_sizeB8ue170006IS2_vEEmRKS2_, symObjAddr: 0x6C3C, symBinAddr: 0x100009DDC, symSize: 0x24 }
  - { offsetInCU: 0x14673, offset: 0x14673, size: 0x8, addend: 0x0, symName: __ZNKSt3__19allocatorIiE8max_sizeB8ue170006Ev, symObjAddr: 0x6CBC, symBinAddr: 0x100009E5C, symSize: 0x14 }
  - { offsetInCU: 0x146A3, offset: 0x146A3, size: 0x8, addend: 0x0, symName: __ZNKSt3__123__move_backward_trivialclB8ue170006IPiS2_Li0EEENS_4pairIPT_PT0_EES5_S5_S7_, symObjAddr: 0x6E70, symBinAddr: 0x10000A010, symSize: 0x48 }
  - { offsetInCU: 0x1470B, offset: 0x1470B, size: 0x8, addend: 0x0, symName: __ZNSt3__14pairIPPiS2_EC1B8ue170006IRS2_S5_LPv0EEEOT_OT0_, symObjAddr: 0x6F80, symBinAddr: 0x10000A120, symSize: 0x3C }
  - { offsetInCU: 0x14769, offset: 0x14769, size: 0x8, addend: 0x0, symName: __ZNSt3__14pairIPPiS2_EC2B8ue170006IRS2_S5_LPv0EEEOT_OT0_, symObjAddr: 0x6FBC, symBinAddr: 0x10000A15C, symSize: 0x34 }
  - { offsetInCU: 0x147D1, offset: 0x147D1, size: 0x8, addend: 0x0, symName: __ZNKSt3__16__lessIvvEclB8ue170006ImmEEbRKT_RKT0_, symObjAddr: 0x7044, symBinAddr: 0x10000A1E4, symSize: 0x34 }
  - { offsetInCU: 0x14825, offset: 0x14825, size: 0x8, addend: 0x0, symName: __ZNSt3__114__split_bufferIPiRNS_9allocatorIS1_EEEC2EmmS4_, symObjAddr: 0x7078, symBinAddr: 0x10000A218, symSize: 0xD4 }
  - { offsetInCU: 0x14898, offset: 0x14898, size: 0x8, addend: 0x0, symName: __ZNSt3__117__compressed_pairIPPiRNS_9allocatorIS1_EEEC1B8ue170006IDnS5_EEOT_OT0_, symObjAddr: 0x714C, symBinAddr: 0x10000A2EC, symSize: 0x3C }
  - { offsetInCU: 0x148F0, offset: 0x148F0, size: 0x8, addend: 0x0, symName: __ZNSt3__117__compressed_pairIPPiRNS_9allocatorIS1_EEEC2B8ue170006IDnS5_EEOT_OT0_, symObjAddr: 0x71C8, symBinAddr: 0x10000A368, symSize: 0x48 }
  - { offsetInCU: 0x14948, offset: 0x14948, size: 0x8, addend: 0x0, symName: __ZNSt3__122__compressed_pair_elemIRNS_9allocatorIPiEELi1ELb0EEC2B8ue170006IS4_vEEOT_, symObjAddr: 0x7210, symBinAddr: 0x10000A3B0, symSize: 0x20 }
  - { offsetInCU: 0x1498A, offset: 0x1498A, size: 0x8, addend: 0x0, symName: __ZNSt3__19allocatorIPiE8allocateB8ue170006Em, symObjAddr: 0x7230, symBinAddr: 0x10000A3D0, symSize: 0x58 }
  - { offsetInCU: 0x149C8, offset: 0x149C8, size: 0x8, addend: 0x0, symName: __ZNSt3__116allocator_traitsINS_9allocatorIPiEEE8max_sizeB8ue170006IS3_vEEmRKS3_, symObjAddr: 0x7288, symBinAddr: 0x10000A428, symSize: 0x24 }
  - { offsetInCU: 0x149F6, offset: 0x149F6, size: 0x8, addend: 0x0, symName: __ZNKSt3__19allocatorIPiE8max_sizeB8ue170006Ev, symObjAddr: 0x72AC, symBinAddr: 0x10000A44C, symSize: 0x14 }
  - { offsetInCU: 0x14A1C, offset: 0x14A1C, size: 0x8, addend: 0x0, symName: __ZNSt3__122__allocator_destructorINS_9allocatorIiEEEC2B8ue170006ERS2_m, symObjAddr: 0x72C0, symBinAddr: 0x10000A460, symSize: 0x2C }
  - { offsetInCU: 0x14A62, offset: 0x14A62, size: 0x8, addend: 0x0, symName: __ZNSt3__110unique_ptrIPiNS_22__allocator_destructorINS_9allocatorIiEEEEEC2B8ue170006ILb1EvEES1_NS_16__dependent_typeINS_27__unique_ptr_deleter_sfinaeIS5_EEXT_EE20__good_rval_ref_typeE, symObjAddr: 0x72EC, symBinAddr: 0x10000A48C, symSize: 0x48 }
  - { offsetInCU: 0x14AB3, offset: 0x14AB3, size: 0x8, addend: 0x0, symName: __ZNSt3__117__compressed_pairIPiNS_22__allocator_destructorINS_9allocatorIiEEEEEC1B8ue170006IRS1_S5_EEOT_OT0_, symObjAddr: 0x7334, symBinAddr: 0x10000A4D4, symSize: 0x3C }
  - { offsetInCU: 0x14B0B, offset: 0x14B0B, size: 0x8, addend: 0x0, symName: __ZNSt3__117__compressed_pairIPiNS_22__allocator_destructorINS_9allocatorIiEEEEEC2B8ue170006IRS1_S5_EEOT_OT0_, symObjAddr: 0x7370, symBinAddr: 0x10000A510, symSize: 0x48 }
  - { offsetInCU: 0x14B63, offset: 0x14B63, size: 0x8, addend: 0x0, symName: __ZNSt3__122__compressed_pair_elemIPiLi0ELb0EEC2B8ue170006IRS1_vEEOT_, symObjAddr: 0x73B8, symBinAddr: 0x10000A558, symSize: 0x24 }
  - { offsetInCU: 0x14BA5, offset: 0x14BA5, size: 0x8, addend: 0x0, symName: __ZNSt3__122__compressed_pair_elemINS_22__allocator_destructorINS_9allocatorIiEEEELi1ELb0EEC2B8ue170006IS4_vEEOT_, symObjAddr: 0x73DC, symBinAddr: 0x10000A57C, symSize: 0x24 }
  - { offsetInCU: 0x14BE7, offset: 0x14BE7, size: 0x8, addend: 0x0, symName: __ZNKSt3__117__compressed_pairIPiNS_22__allocator_destructorINS_9allocatorIiEEEEE5firstB8ue170006Ev, symObjAddr: 0x7400, symBinAddr: 0x10000A5A0, symSize: 0x24 }
  - { offsetInCU: 0x14C0D, offset: 0x14C0D, size: 0x8, addend: 0x0, symName: __ZNKSt3__122__compressed_pair_elemIPiLi0ELb0EE5__getB8ue170006Ev, symObjAddr: 0x7424, symBinAddr: 0x10000A5C4, symSize: 0x14 }
  - { offsetInCU: 0x14C33, offset: 0x14C33, size: 0x8, addend: 0x0, symName: __ZNSt3__117__compressed_pairIPiNS_22__allocator_destructorINS_9allocatorIiEEEEE5firstB8ue170006Ev, symObjAddr: 0x7438, symBinAddr: 0x10000A5D8, symSize: 0x24 }
  - { offsetInCU: 0x14C59, offset: 0x14C59, size: 0x8, addend: 0x0, symName: __ZNSt3__122__compressed_pair_elemIPiLi0ELb0EE5__getB8ue170006Ev, symObjAddr: 0x745C, symBinAddr: 0x10000A5FC, symSize: 0x14 }
  - { offsetInCU: 0x14C7F, offset: 0x14C7F, size: 0x8, addend: 0x0, symName: __ZNSt3__117__compressed_pairIPPiNS_9allocatorIS1_EEE5firstB8ue170006Ev, symObjAddr: 0x7470, symBinAddr: 0x10000A610, symSize: 0x24 }
  - { offsetInCU: 0x14CA5, offset: 0x14CA5, size: 0x8, addend: 0x0, symName: __ZNSt3__122__compressed_pair_elemIPPiLi0ELb0EE5__getB8ue170006Ev, symObjAddr: 0x7494, symBinAddr: 0x10000A634, symSize: 0x14 }
  - { offsetInCU: 0x14CCB, offset: 0x14CCB, size: 0x8, addend: 0x0, symName: __ZNSt3__117__compressed_pairIPPiRNS_9allocatorIS1_EEE5firstB8ue170006Ev, symObjAddr: 0x74A8, symBinAddr: 0x10000A648, symSize: 0x24 }
  - { offsetInCU: 0x14CF1, offset: 0x14CF1, size: 0x8, addend: 0x0, symName: __ZNSt3__110unique_ptrIPiNS_22__allocator_destructorINS_9allocatorIiEEEEED2B8ue170006Ev, symObjAddr: 0x74CC, symBinAddr: 0x10000A66C, symSize: 0x30 }
  - { offsetInCU: 0x14D1B, offset: 0x14D1B, size: 0x8, addend: 0x0, symName: __ZNSt3__110unique_ptrIPiNS_22__allocator_destructorINS_9allocatorIiEEEEE5resetB8ue170006ES1_, symObjAddr: 0x74FC, symBinAddr: 0x10000A69C, symSize: 0x78 }
  - { offsetInCU: 0x14D5F, offset: 0x14D5F, size: 0x8, addend: 0x0, symName: __ZNSt3__117__compressed_pairIPiNS_22__allocator_destructorINS_9allocatorIiEEEEE6secondB8ue170006Ev, symObjAddr: 0x7574, symBinAddr: 0x10000A714, symSize: 0x28 }
  - { offsetInCU: 0x14D85, offset: 0x14D85, size: 0x8, addend: 0x0, symName: __ZNSt3__122__allocator_destructorINS_9allocatorIiEEEclB8ue170006EPi, symObjAddr: 0x759C, symBinAddr: 0x10000A73C, symSize: 0x34 }
  - { offsetInCU: 0x14DB9, offset: 0x14DB9, size: 0x8, addend: 0x0, symName: __ZNSt3__122__compressed_pair_elemINS_22__allocator_destructorINS_9allocatorIiEEEELi1ELb0EE5__getB8ue170006Ev, symObjAddr: 0x75D0, symBinAddr: 0x10000A770, symSize: 0x14 }
  - { offsetInCU: 0x14DDF, offset: 0x14DDF, size: 0x8, addend: 0x0, symName: __ZNSt3__114__split_bufferIPiRNS_9allocatorIS1_EEED2Ev, symObjAddr: 0x75E4, symBinAddr: 0x10000A784, symSize: 0x8C }
  - { offsetInCU: 0x14E0B, offset: 0x14E0B, size: 0x8, addend: 0x0, symName: __ZNSt3__114__split_bufferIPiRNS_9allocatorIS1_EEE5clearB8ue170006Ev, symObjAddr: 0x7670, symBinAddr: 0x10000A810, symSize: 0x28 }
  - { offsetInCU: 0x14E31, offset: 0x14E31, size: 0x8, addend: 0x0, symName: __ZNKSt3__114__split_bufferIPiRNS_9allocatorIS1_EEE8capacityB8ue170006Ev, symObjAddr: 0x7698, symBinAddr: 0x10000A838, symSize: 0x40 }
  - { offsetInCU: 0x14E57, offset: 0x14E57, size: 0x8, addend: 0x0, symName: __ZNSt3__114__split_bufferIPiRNS_9allocatorIS1_EEE17__destruct_at_endB8ue170006EPS1_, symObjAddr: 0x76D8, symBinAddr: 0x10000A878, symSize: 0x2C }
  - { offsetInCU: 0x14E8B, offset: 0x14E8B, size: 0x8, addend: 0x0, symName: __ZNSt3__114__split_bufferIPiRNS_9allocatorIS1_EEE17__destruct_at_endB8ue170006EPS1_NS_17integral_constantIbLb0EEE, symObjAddr: 0x7704, symBinAddr: 0x10000A8A4, symSize: 0x80 }
  - { offsetInCU: 0x14ECB, offset: 0x14ECB, size: 0x8, addend: 0x0, symName: __ZNKSt3__114__split_bufferIPiRNS_9allocatorIS1_EEE9__end_capB8ue170006Ev, symObjAddr: 0x7784, symBinAddr: 0x10000A924, symSize: 0x28 }
  - { offsetInCU: 0x14EF1, offset: 0x14EF1, size: 0x8, addend: 0x0, symName: __ZNKSt3__117__compressed_pairIPPiRNS_9allocatorIS1_EEE5firstB8ue170006Ev, symObjAddr: 0x77AC, symBinAddr: 0x10000A94C, symSize: 0x24 }
  - { offsetInCU: 0x14F17, offset: 0x14F17, size: 0x8, addend: 0x0, symName: __ZNSt3__19allocatorIiE9constructB8ue170006IiJRKiEEEvPT_DpOT0_, symObjAddr: 0x77D0, symBinAddr: 0x10000A970, symSize: 0x28 }
  - { offsetInCU: 0x14F6D, offset: 0x14F6D, size: 0x8, addend: 0x0, symName: __ZNSt3__116__deque_iteratorIiPiRiPS1_lLl1024EEC1B8ue170006ES3_S1_, symObjAddr: 0x77F8, symBinAddr: 0x10000A998, symSize: 0x3C }
  - { offsetInCU: 0x14FB5, offset: 0x14FB5, size: 0x8, addend: 0x0, symName: __ZNSt3__116__deque_iteratorIiPiRiPS1_lLl1024EEC2B8ue170006ES3_S1_, symObjAddr: 0x7834, symBinAddr: 0x10000A9D4, symSize: 0x2C }
  - { offsetInCU: 0x14FFD, offset: 0x14FFD, size: 0x8, addend: 0x0, symName: __ZNSt3__15dequeIiNS_9allocatorIiEEEC2INS_16__deque_iteratorIiPiRiPS6_lLl1024EEEEET_SA_PNS_9enable_ifIXsr29__has_input_iterator_categoryISA_EE5valueEvE4typeE, symObjAddr: 0x7860, symBinAddr: 0x10000AA00, symSize: 0xC0 }
  - { offsetInCU: 0x1505C, offset: 0x1505C, size: 0x8, addend: 0x0, symName: __ZNSt3__15dequeIiNS_9allocatorIiEEE8__appendINS_16__deque_iteratorIiPiRiPS6_lLl1024EEEEEvT_SA_PNS_9enable_ifIXsr31__has_forward_iterator_categoryISA_EE5valueEvE4typeE, symObjAddr: 0x7920, symBinAddr: 0x10000AAC0, symSize: 0x78 }
  - { offsetInCU: 0x150B7, offset: 0x150B7, size: 0x8, addend: 0x0, symName: __ZNSt3__15dequeIiNS_9allocatorIiEEE18__append_with_sizeB8ue170006INS_16__deque_iteratorIiPiRiPS6_lLl1024EEEEEvT_m, symObjAddr: 0x7998, symBinAddr: 0x10000AB38, symSize: 0x210 }
  - { offsetInCU: 0x15187, offset: 0x15187, size: 0x8, addend: 0x0, symName: __ZNSt3__15dequeIiNS_9allocatorIiEEE19__add_back_capacityEm, symObjAddr: 0x7BF4, symBinAddr: 0x10000AD94, symSize: 0x63C }
  - { offsetInCU: 0x15288, offset: 0x15288, size: 0x8, addend: 0x0, symName: __ZNKSt3__116__deque_iteratorIiPiRiPS1_lLl1024EEplB8ue170006El, symObjAddr: 0x8230, symBinAddr: 0x10000B3D0, symSize: 0x40 }
  - { offsetInCU: 0x152EF, offset: 0x152EF, size: 0x8, addend: 0x0, symName: __ZNSt3__15dequeIiNS_9allocatorIiEEE13__deque_rangeC1B8ue170006ENS_16__deque_iteratorIiPiRiPS6_lLl1024EEES9_, symObjAddr: 0x8270, symBinAddr: 0x10000B410, symSize: 0x4C }
  - { offsetInCU: 0x15337, offset: 0x15337, size: 0x8, addend: 0x0, symName: __ZNKSt3__15dequeIiNS_9allocatorIiEEE13__deque_range5beginB8ue170006Ev, symObjAddr: 0x82BC, symBinAddr: 0x10000B45C, symSize: 0x24 }
  - { offsetInCU: 0x1535D, offset: 0x1535D, size: 0x8, addend: 0x0, symName: __ZNKSt3__15dequeIiNS_9allocatorIiEEE13__deque_range3endB8ue170006Ev, symObjAddr: 0x82E0, symBinAddr: 0x10000B480, symSize: 0x50 }
  - { offsetInCU: 0x15383, offset: 0x15383, size: 0x8, addend: 0x0, symName: __ZNKSt3__15dequeIiNS_9allocatorIiEEE13__deque_rangedeB8ue170006Ev, symObjAddr: 0x8364, symBinAddr: 0x10000B504, symSize: 0x7C }
  - { offsetInCU: 0x153BD, offset: 0x153BD, size: 0x8, addend: 0x0, symName: __ZNSt3__15dequeIiNS_9allocatorIiEEE21_ConstructTransactionC1B8ue170006EPS3_RNS3_19__deque_block_rangeE, symObjAddr: 0x83E0, symBinAddr: 0x10000B580, symSize: 0x3C }
  - { offsetInCU: 0x15405, offset: 0x15405, size: 0x8, addend: 0x0, symName: __ZNSt3__116allocator_traitsINS_9allocatorIiEEE9constructB8ue170006IiJRiEvEEvRS2_PT_DpOT0_, symObjAddr: 0x841C, symBinAddr: 0x10000B5BC, symSize: 0x34 }
  - { offsetInCU: 0x1545C, offset: 0x1545C, size: 0x8, addend: 0x0, symName: __ZNSt3__15dequeIiNS_9allocatorIiEEE21_ConstructTransactionD1B8ue170006Ev, symObjAddr: 0x8450, symBinAddr: 0x10000B5F0, symSize: 0x2C }
  - { offsetInCU: 0x15486, offset: 0x15486, size: 0x8, addend: 0x0, symName: __ZNSt3__15dequeIiNS_9allocatorIiEEE13__deque_rangeppB8ue170006Ev, symObjAddr: 0x847C, symBinAddr: 0x10000B61C, symSize: 0x64 }
  - { offsetInCU: 0x154AC, offset: 0x154AC, size: 0x8, addend: 0x0, symName: __ZNSt3__15dequeIiNS_9allocatorIiEEE18__recommend_blocksB8ue170006Em, symObjAddr: 0x84E0, symBinAddr: 0x10000B680, symSize: 0x40 }
  - { offsetInCU: 0x154D0, offset: 0x154D0, size: 0x8, addend: 0x0, symName: __ZNSt3__114__split_bufferIPiRNS_9allocatorIS1_EEE4backB8ue170006Ev, symObjAddr: 0x854C, symBinAddr: 0x10000B6EC, symSize: 0x1C }
  - { offsetInCU: 0x154F6, offset: 0x154F6, size: 0x8, addend: 0x0, symName: __ZNSt3__114__split_bufferIPiRNS_9allocatorIS1_EEE5beginB8ue170006Ev, symObjAddr: 0x8568, symBinAddr: 0x10000B708, symSize: 0x18 }
  - { offsetInCU: 0x1551C, offset: 0x1551C, size: 0x8, addend: 0x0, symName: __ZNSt3__114__split_bufferIPiRNS_9allocatorIS1_EEE3endB8ue170006Ev, symObjAddr: 0x8580, symBinAddr: 0x10000B720, symSize: 0x18 }
  - { offsetInCU: 0x15542, offset: 0x15542, size: 0x8, addend: 0x0, symName: __ZNSt3__114__split_bufferIPiRNS_9allocatorIS1_EEE9push_backB8ue170006ERKS1_, symObjAddr: 0x8598, symBinAddr: 0x10000B738, symSize: 0x260 }
  - { offsetInCU: 0x155BA, offset: 0x155BA, size: 0x8, addend: 0x0, symName: __ZNSt3__116__deque_iteratorIiPiRiPS1_lLl1024EEpLB8ue170006El, symObjAddr: 0x884C, symBinAddr: 0x10000B9EC, symSize: 0x110 }
  - { offsetInCU: 0x1560C, offset: 0x1560C, size: 0x8, addend: 0x0, symName: __ZNSt3__15dequeIiNS_9allocatorIiEEE13__deque_rangeC2B8ue170006ENS_16__deque_iteratorIiPiRiPS6_lLl1024EEES9_, symObjAddr: 0x895C, symBinAddr: 0x10000BAFC, symSize: 0x34 }
  - { offsetInCU: 0x15654, offset: 0x15654, size: 0x8, addend: 0x0, symName: __ZNSt3__15dequeIiNS_9allocatorIiEEE19__deque_block_rangeC1B8ue170006EPiS5_, symObjAddr: 0x89C0, symBinAddr: 0x10000BB60, symSize: 0x3C }
  - { offsetInCU: 0x1569C, offset: 0x1569C, size: 0x8, addend: 0x0, symName: __ZNSt3__15dequeIiNS_9allocatorIiEEE19__deque_block_rangeC2B8ue170006EPiS5_, symObjAddr: 0x89FC, symBinAddr: 0x10000BB9C, symSize: 0x2C }
  - { offsetInCU: 0x156E4, offset: 0x156E4, size: 0x8, addend: 0x0, symName: __ZNSt3__15dequeIiNS_9allocatorIiEEE21_ConstructTransactionC2B8ue170006EPS3_RNS3_19__deque_block_rangeE, symObjAddr: 0x8A28, symBinAddr: 0x10000BBC8, symSize: 0x48 }
  - { offsetInCU: 0x1572C, offset: 0x1572C, size: 0x8, addend: 0x0, symName: __ZNSt3__19allocatorIiE9constructB8ue170006IiJRiEEEvPT_DpOT0_, symObjAddr: 0x8A70, symBinAddr: 0x10000BC10, symSize: 0x28 }
  - { offsetInCU: 0x15782, offset: 0x15782, size: 0x8, addend: 0x0, symName: __ZNSt3__15dequeIiNS_9allocatorIiEEE21_ConstructTransactionD2B8ue170006Ev, symObjAddr: 0x8A98, symBinAddr: 0x10000BC38, symSize: 0x5C }
  - { offsetInCU: 0x157AC, offset: 0x157AC, size: 0x8, addend: 0x0, symName: __ZNSt3__15dequeIiNS_9allocatorIiEEEC2EmRKi, symObjAddr: 0x8BD4, symBinAddr: 0x10000BD74, symSize: 0xB8 }
  - { offsetInCU: 0x157F6, offset: 0x157F6, size: 0x8, addend: 0x0, symName: __ZNSt3__15dequeIiNS_9allocatorIiEEE8__appendEmRKi, symObjAddr: 0x8C8C, symBinAddr: 0x10000BE2C, symSize: 0x1FC }
  - { offsetInCU: 0x158BC, offset: 0x158BC, size: 0x8, addend: 0x0, symName: __ZNSt3__15dequeIiNS_9allocatorIiEEEC2ERKS3_, symObjAddr: 0x8E88, symBinAddr: 0x10000C028, symSize: 0xF8 }
  - { offsetInCU: 0x158F7, offset: 0x158F7, size: 0x8, addend: 0x0, symName: __ZNSt3__116allocator_traitsINS_9allocatorIiEEE37select_on_container_copy_constructionB8ue170006IS2_vvEES2_RKS2_, symObjAddr: 0x8F80, symBinAddr: 0x10000C120, symSize: 0x10 }
  - { offsetInCU: 0x15926, offset: 0x15926, size: 0x8, addend: 0x0, symName: __ZNKSt3__15dequeIiNS_9allocatorIiEEE7__allocB8ue170006Ev, symObjAddr: 0x8F90, symBinAddr: 0x10000C130, symSize: 0x28 }
  - { offsetInCU: 0x1594C, offset: 0x1594C, size: 0x8, addend: 0x0, symName: __ZNSt3__19allocatorIPiEC1B8ue170006IiEERKNS0_IT_EE, symObjAddr: 0x8FB8, symBinAddr: 0x10000C158, symSize: 0x34 }
  - { offsetInCU: 0x15989, offset: 0x15989, size: 0x8, addend: 0x0, symName: __ZNSt3__114__split_bufferIPiNS_9allocatorIS1_EEEC1B8ue170006ERKS3_, symObjAddr: 0x8FEC, symBinAddr: 0x10000C18C, symSize: 0x34 }
  - { offsetInCU: 0x159C1, offset: 0x159C1, size: 0x8, addend: 0x0, symName: __ZNSt3__117__compressed_pairImNS_9allocatorIiEEEC1B8ue170006IiRNS1_IPiEEEEOT_OT0_, symObjAddr: 0x9020, symBinAddr: 0x10000C1C0, symSize: 0x3C }
  - { offsetInCU: 0x15A19, offset: 0x15A19, size: 0x8, addend: 0x0, symName: __ZNSt3__15dequeIiNS_9allocatorIiEEE8__appendINS_16__deque_iteratorIiPKiRS6_PKS7_lLl1024EEEEEvT_SC_PNS_9enable_ifIXsr31__has_forward_iterator_categoryISC_EE5valueEvE4typeE, symObjAddr: 0x905C, symBinAddr: 0x10000C1FC, symSize: 0x78 }
  - { offsetInCU: 0x15A74, offset: 0x15A74, size: 0x8, addend: 0x0, symName: __ZNKSt3__117__compressed_pairImNS_9allocatorIiEEE6secondB8ue170006Ev, symObjAddr: 0x90D4, symBinAddr: 0x10000C274, symSize: 0x24 }
  - { offsetInCU: 0x15A9A, offset: 0x15A9A, size: 0x8, addend: 0x0, symName: __ZNKSt3__122__compressed_pair_elemINS_9allocatorIiEELi1ELb1EE5__getB8ue170006Ev, symObjAddr: 0x90F8, symBinAddr: 0x10000C298, symSize: 0x14 }
  - { offsetInCU: 0x15AC0, offset: 0x15AC0, size: 0x8, addend: 0x0, symName: __ZNSt3__19allocatorIPiEC2B8ue170006IiEERKNS0_IT_EE, symObjAddr: 0x910C, symBinAddr: 0x10000C2AC, symSize: 0x30 }
  - { offsetInCU: 0x15AFD, offset: 0x15AFD, size: 0x8, addend: 0x0, symName: __ZNSt3__114__split_bufferIPiNS_9allocatorIS1_EEEC2B8ue170006ERKS3_, symObjAddr: 0x913C, symBinAddr: 0x10000C2DC, symSize: 0x4C }
  - { offsetInCU: 0x15B35, offset: 0x15B35, size: 0x8, addend: 0x0, symName: __ZNSt3__117__compressed_pairIPPiNS_9allocatorIS1_EEEC1B8ue170006IDnRKS4_EEOT_OT0_, symObjAddr: 0x9188, symBinAddr: 0x10000C328, symSize: 0x3C }
  - { offsetInCU: 0x15B8D, offset: 0x15B8D, size: 0x8, addend: 0x0, symName: __ZNSt3__117__compressed_pairIPPiNS_9allocatorIS1_EEEC2B8ue170006IDnRKS4_EEOT_OT0_, symObjAddr: 0x91C4, symBinAddr: 0x10000C364, symSize: 0x44 }
  - { offsetInCU: 0x15BE5, offset: 0x15BE5, size: 0x8, addend: 0x0, symName: __ZNSt3__122__compressed_pair_elemINS_9allocatorIPiEELi1ELb1EEC2B8ue170006IRKS3_vEEOT_, symObjAddr: 0x9208, symBinAddr: 0x10000C3A8, symSize: 0x18 }
  - { offsetInCU: 0x15C27, offset: 0x15C27, size: 0x8, addend: 0x0, symName: __ZNSt3__117__compressed_pairImNS_9allocatorIiEEEC2B8ue170006IiRNS1_IPiEEEEOT_OT0_, symObjAddr: 0x9220, symBinAddr: 0x10000C3C0, symSize: 0x44 }
  - { offsetInCU: 0x15C7F, offset: 0x15C7F, size: 0x8, addend: 0x0, symName: __ZNSt3__122__compressed_pair_elemINS_9allocatorIiEELi1ELb1EEC2B8ue170006IRNS1_IPiEEvEEOT_, symObjAddr: 0x9264, symBinAddr: 0x10000C404, symSize: 0x34 }
  - { offsetInCU: 0x15CC1, offset: 0x15CC1, size: 0x8, addend: 0x0, symName: __ZNSt3__19allocatorIiEC2B8ue170006IPiEERKNS0_IT_EE, symObjAddr: 0x9298, symBinAddr: 0x10000C438, symSize: 0x30 }
  - { offsetInCU: 0x15CFE, offset: 0x15CFE, size: 0x8, addend: 0x0, symName: __ZNSt3__15dequeIiNS_9allocatorIiEEE18__append_with_sizeB8ue170006INS_16__deque_iteratorIiPKiRS6_PKS7_lLl1024EEEEEvT_m, symObjAddr: 0x92C8, symBinAddr: 0x10000C468, symSize: 0x210 }
  - { offsetInCU: 0x15DCE, offset: 0x15DCE, size: 0x8, addend: 0x0, symName: __ZNSt3__15dequeIiNS_9allocatorIiEEE19__copy_assign_allocB8ue170006ERKS3_, symObjAddr: 0x9604, symBinAddr: 0x10000C7A4, symSize: 0x2C }
  - { offsetInCU: 0x15E03, offset: 0x15E03, size: 0x8, addend: 0x0, symName: __ZNSt3__15dequeIiNS_9allocatorIiEEE6assignINS_16__deque_iteratorIiPKiRS6_PKS7_lLl1024EEEEEvT_SC_PNS_9enable_ifIXsr37__has_random_access_iterator_categoryISC_EE5valueEvE4typeE, symObjAddr: 0x9630, symBinAddr: 0x10000C7D0, symSize: 0x68 }
  - { offsetInCU: 0x15E5E, offset: 0x15E5E, size: 0x8, addend: 0x0, symName: __ZNSt3__15dequeIiNS_9allocatorIiEEE19__copy_assign_allocB8ue170006ERKS3_NS_17integral_constantIbLb0EEE, symObjAddr: 0x9698, symBinAddr: 0x10000C838, symSize: 0x14 }
  - { offsetInCU: 0x15E9C, offset: 0x15E9C, size: 0x8, addend: 0x0, symName: __ZNSt3__15dequeIiNS_9allocatorIiEEE32__assign_with_size_random_accessB8ue170006INS_16__deque_iteratorIiPKiRS6_PKS7_lLl1024EEEEEvT_l, symObjAddr: 0x96AC, symBinAddr: 0x10000C84C, symSize: 0x158 }
  - { offsetInCU: 0x15F08, offset: 0x15F08, size: 0x8, addend: 0x0, symName: __ZNKSt3__116__deque_iteratorIiPKiRS1_PKS2_lLl1024EEplB8ue170006El, symObjAddr: 0x9804, symBinAddr: 0x10000C9A4, symSize: 0x40 }
  - { offsetInCU: 0x15F4C, offset: 0x15F4C, size: 0x8, addend: 0x0, symName: __ZNSt3__15dequeIiNS_9allocatorIiEEE14__erase_to_endENS_16__deque_iteratorIiPKiRS5_PKS6_lLl1024EEE, symObjAddr: 0x98BC, symBinAddr: 0x10000CA5C, symSize: 0x194 }
  - { offsetInCU: 0x1601B, offset: 0x1601B, size: 0x8, addend: 0x0, symName: __ZNSt3__116__deque_iteratorIiPKiRS1_PKS2_lLl1024EEpLB8ue170006El, symObjAddr: 0x9AD8, symBinAddr: 0x10000CC78, symSize: 0x110 }
  - { offsetInCU: 0x16090, offset: 0x16090, size: 0x8, addend: 0x0, symName: __ZNKSt3__111__copy_loopINS_17_ClassicAlgPolicyEEclB8ue170006INS_16__deque_iteratorIiPKiRS5_PKS6_lLl1024EEENS4_IiPiRiPSB_lLl1024EEELi0EEENS_4pairIT_T0_EESG_SG_SH_, symObjAddr: 0x9E60, symBinAddr: 0x10000D000, symSize: 0x88 }
  - { offsetInCU: 0x16116, offset: 0x16116, size: 0x8, addend: 0x0, symName: __ZNSt3__14pairINS_16__deque_iteratorIiPKiRS2_PKS3_lLl1024EEES7_EC1B8ue170006IS7_S7_LPv0EEEOT_OT0_, symObjAddr: 0xA0B0, symBinAddr: 0x10000D250, symSize: 0x3C }
  - { offsetInCU: 0x16174, offset: 0x16174, size: 0x8, addend: 0x0, symName: __ZNSt3__14pairINS_16__deque_iteratorIiPKiRS2_PKS3_lLl1024EEES7_EC2B8ue170006IS7_S7_LPv0EEEOT_OT0_, symObjAddr: 0xA0EC, symBinAddr: 0x10000D28C, symSize: 0x34 }
  - { offsetInCU: 0x161D2, offset: 0x161D2, size: 0x8, addend: 0x0, symName: __ZNSt3__118__unwrap_iter_implINS_16__deque_iteratorIiPKiRS2_PKS3_lLl1024EEELb0EE8__unwrapB8ue170006ES7_, symObjAddr: 0xA120, symBinAddr: 0x10000D2C0, symSize: 0x24 }
  - { offsetInCU: 0x161F5, offset: 0x161F5, size: 0x8, addend: 0x0, symName: __ZNSt3__111__copy_loopINS_17_ClassicAlgPolicyEE12_CopySegmentINS_16__deque_iteratorIiPKiRS5_PKS6_lLl1024EEENS4_IiPiRiPSB_lLl1024EEEEC1B8ue170006ERSE_, symObjAddr: 0xA2B8, symBinAddr: 0x10000D458, symSize: 0x34 }
  - { offsetInCU: 0x1622D, offset: 0x1622D, size: 0x8, addend: 0x0, symName: __ZNSt3__127__segmented_iterator_traitsINS_16__deque_iteratorIiPKiRS2_PKS3_lLl1024EEEE9__segmentB8ue170006ES7_, symObjAddr: 0xA324, symBinAddr: 0x10000D4C4, symSize: 0x18 }
  - { offsetInCU: 0x16251, offset: 0x16251, size: 0x8, addend: 0x0, symName: __ZNSt3__111__copy_loopINS_17_ClassicAlgPolicyEE12_CopySegmentINS_16__deque_iteratorIiPKiRS5_PKS6_lLl1024EEENS4_IiPiRiPSB_lLl1024EEEEclB8ue170006ES6_S6_, symObjAddr: 0xA33C, symBinAddr: 0x10000D4DC, symSize: 0x68 }
  - { offsetInCU: 0x16293, offset: 0x16293, size: 0x8, addend: 0x0, symName: __ZNSt3__127__segmented_iterator_traitsINS_16__deque_iteratorIiPKiRS2_PKS3_lLl1024EEEE7__localB8ue170006ES7_, symObjAddr: 0xA3A4, symBinAddr: 0x10000D544, symSize: 0x18 }
  - { offsetInCU: 0x162B7, offset: 0x162B7, size: 0x8, addend: 0x0, symName: __ZNSt3__127__segmented_iterator_traitsINS_16__deque_iteratorIiPKiRS2_PKS3_lLl1024EEEE5__endB8ue170006ES6_, symObjAddr: 0xA3BC, symBinAddr: 0x10000D55C, symSize: 0x1C }
  - { offsetInCU: 0x162DB, offset: 0x162DB, size: 0x8, addend: 0x0, symName: __ZNSt3__127__segmented_iterator_traitsINS_16__deque_iteratorIiPKiRS2_PKS3_lLl1024EEEE7__beginB8ue170006ES6_, symObjAddr: 0xA3D8, symBinAddr: 0x10000D578, symSize: 0x18 }
  - { offsetInCU: 0x16318, offset: 0x16318, size: 0x8, addend: 0x0, symName: __ZNKSt3__111__copy_loopINS_17_ClassicAlgPolicyEEclB8ue170006IPKiNS_16__deque_iteratorIiPiRiPS7_lLl1024EEELi0EEENS_4pairIT_T0_EESC_SC_SD_, symObjAddr: 0xA5C8, symBinAddr: 0x10000D768, symSize: 0x164 }
  - { offsetInCU: 0x163F5, offset: 0x163F5, size: 0x8, addend: 0x0, symName: __ZNSt3__14pairIPKiS2_EC1B8ue170006IS2_S2_LPv0EEEOT_OT0_, symObjAddr: 0xA7EC, symBinAddr: 0x10000D98C, symSize: 0x3C }
  - { offsetInCU: 0x16453, offset: 0x16453, size: 0x8, addend: 0x0, symName: __ZNSt3__14pairIPKiS2_EC2B8ue170006IS2_S2_LPv0EEEOT_OT0_, symObjAddr: 0xA828, symBinAddr: 0x10000D9C8, symSize: 0x34 }
  - { offsetInCU: 0x164B1, offset: 0x164B1, size: 0x8, addend: 0x0, symName: __ZNSt3__118__unwrap_iter_implIPKiLb1EE8__unwrapB8ue170006ES2_, symObjAddr: 0xA85C, symBinAddr: 0x10000D9FC, symSize: 0x24 }
  - { offsetInCU: 0x164D4, offset: 0x164D4, size: 0x8, addend: 0x0, symName: __ZNSt3__127__segmented_iterator_traitsINS_16__deque_iteratorIiPiRiPS2_lLl1024EEEE7__localB8ue170006ES5_, symObjAddr: 0xA894, symBinAddr: 0x10000DA34, symSize: 0x18 }
  - { offsetInCU: 0x164F8, offset: 0x164F8, size: 0x8, addend: 0x0, symName: __ZNSt3__127__segmented_iterator_traitsINS_16__deque_iteratorIiPiRiPS2_lLl1024EEEE9__segmentB8ue170006ES5_, symObjAddr: 0xA8AC, symBinAddr: 0x10000DA4C, symSize: 0x18 }
  - { offsetInCU: 0x1651C, offset: 0x1651C, size: 0x8, addend: 0x0, symName: __ZNSt3__127__segmented_iterator_traitsINS_16__deque_iteratorIiPiRiPS2_lLl1024EEEE5__endB8ue170006ES4_, symObjAddr: 0xA8C4, symBinAddr: 0x10000DA64, symSize: 0x1C }
  - { offsetInCU: 0x16540, offset: 0x16540, size: 0x8, addend: 0x0, symName: __ZNSt3__127__segmented_iterator_traitsINS_16__deque_iteratorIiPiRiPS2_lLl1024EEEE9__composeB8ue170006ES4_S2_, symObjAddr: 0xA950, symBinAddr: 0x10000DAF0, symSize: 0x84 }
  - { offsetInCU: 0x16573, offset: 0x16573, size: 0x8, addend: 0x0, symName: __ZNSt3__127__segmented_iterator_traitsINS_16__deque_iteratorIiPiRiPS2_lLl1024EEEE7__beginB8ue170006ES4_, symObjAddr: 0xA9D4, symBinAddr: 0x10000DB74, symSize: 0x18 }
  - { offsetInCU: 0x165A1, offset: 0x165A1, size: 0x8, addend: 0x0, symName: __ZNKSt3__16__lessIvvEclB8ue170006IllEEbRKT_RKT0_, symObjAddr: 0xAA40, symBinAddr: 0x10000DBE0, symSize: 0x34 }
  - { offsetInCU: 0x16618, offset: 0x16618, size: 0x8, addend: 0x0, symName: __ZNKSt3__114__copy_trivialclB8ue170006IKiiLi0EEENS_4pairIPT_PT0_EES5_S5_S7_, symObjAddr: 0xAB6C, symBinAddr: 0x10000DD0C, symSize: 0x48 }
  - { offsetInCU: 0x16680, offset: 0x16680, size: 0x8, addend: 0x0, symName: __ZNSt3__14pairIPKiPiEC1B8ue170006IRS2_S3_LPv0EEEOT_OT0_, symObjAddr: 0xAD68, symBinAddr: 0x10000DF08, symSize: 0x3C }
  - { offsetInCU: 0x166DE, offset: 0x166DE, size: 0x8, addend: 0x0, symName: __ZNSt3__14pairIPKiPiEC2B8ue170006IRS2_S3_LPv0EEEOT_OT0_, symObjAddr: 0xADA4, symBinAddr: 0x10000DF44, symSize: 0x34 }
  - { offsetInCU: 0x1673C, offset: 0x1673C, size: 0x8, addend: 0x0, symName: __ZNSt3__118__unwrap_iter_implIPiLb1EE8__unwrapB8ue170006ES1_, symObjAddr: 0xADD8, symBinAddr: 0x10000DF78, symSize: 0x24 }
  - { offsetInCU: 0x1675F, offset: 0x1675F, size: 0x8, addend: 0x0, symName: __ZNSt3__14pairIPKiPiEC1B8ue170006IS2_S3_LPv0EEEOT_OT0_, symObjAddr: 0xADFC, symBinAddr: 0x10000DF9C, symSize: 0x3C }
  - { offsetInCU: 0x167BD, offset: 0x167BD, size: 0x8, addend: 0x0, symName: __ZNSt3__14pairIPKiPiEC2B8ue170006IS2_S3_LPv0EEEOT_OT0_, symObjAddr: 0xAE38, symBinAddr: 0x10000DFD8, symSize: 0x34 }
  - { offsetInCU: 0x1681B, offset: 0x1681B, size: 0x8, addend: 0x0, symName: __ZNSt3__118__unwrap_iter_implIPiLb1EE8__rewrapB8ue170006ES1_S1_, symObjAddr: 0xAE6C, symBinAddr: 0x10000E00C, symSize: 0x50 }
  - { offsetInCU: 0x16851, offset: 0x16851, size: 0x8, addend: 0x0, symName: __ZNSt3__14pairIPKiNS_16__deque_iteratorIiPiRiPS4_lLl1024EEEEC1B8ue170006IS2_S7_LPv0EEEOT_OT0_, symObjAddr: 0xAEBC, symBinAddr: 0x10000E05C, symSize: 0x3C }
  - { offsetInCU: 0x168AF, offset: 0x168AF, size: 0x8, addend: 0x0, symName: __ZNSt3__14pairIPKiNS_16__deque_iteratorIiPiRiPS4_lLl1024EEEEC2B8ue170006IS2_S7_LPv0EEEOT_OT0_, symObjAddr: 0xAEF8, symBinAddr: 0x10000E098, symSize: 0x34 }
  - { offsetInCU: 0x1690D, offset: 0x1690D, size: 0x8, addend: 0x0, symName: __ZNSt3__118__unwrap_iter_implIPKiLb1EE8__rewrapB8ue170006ES2_S2_, symObjAddr: 0xAF68, symBinAddr: 0x10000E108, symSize: 0x50 }
  - { offsetInCU: 0x1693E, offset: 0x1693E, size: 0x8, addend: 0x0, symName: __ZNSt3__111__copy_loopINS_17_ClassicAlgPolicyEE12_CopySegmentINS_16__deque_iteratorIiPKiRS5_PKS6_lLl1024EEENS4_IiPiRiPSB_lLl1024EEEEC2B8ue170006ERSE_, symObjAddr: 0xAFB8, symBinAddr: 0x10000E158, symSize: 0x20 }
  - { offsetInCU: 0x16976, offset: 0x16976, size: 0x8, addend: 0x0, symName: __ZNSt3__14pairINS_16__deque_iteratorIiPKiRS2_PKS3_lLl1024EEENS1_IiPiRiPS8_lLl1024EEEEC1B8ue170006IRS7_SB_LPv0EEEOT_OT0_, symObjAddr: 0xAFD8, symBinAddr: 0x10000E178, symSize: 0x3C }
  - { offsetInCU: 0x169D4, offset: 0x169D4, size: 0x8, addend: 0x0, symName: __ZNSt3__14pairINS_16__deque_iteratorIiPKiRS2_PKS3_lLl1024EEENS1_IiPiRiPS8_lLl1024EEEEC2B8ue170006IRS7_SB_LPv0EEEOT_OT0_, symObjAddr: 0xB014, symBinAddr: 0x10000E1B4, symSize: 0x34 }
  - { offsetInCU: 0x16A32, offset: 0x16A32, size: 0x8, addend: 0x0, symName: __ZNSt3__118__unwrap_iter_implINS_16__deque_iteratorIiPiRiPS2_lLl1024EEELb0EE8__unwrapB8ue170006ES5_, symObjAddr: 0xB048, symBinAddr: 0x10000E1E8, symSize: 0x24 }
  - { offsetInCU: 0x16A55, offset: 0x16A55, size: 0x8, addend: 0x0, symName: __ZNSt3__14pairINS_16__deque_iteratorIiPKiRS2_PKS3_lLl1024EEENS1_IiPiRiPS8_lLl1024EEEEC1B8ue170006IS7_SB_LPv0EEEOT_OT0_, symObjAddr: 0xB06C, symBinAddr: 0x10000E20C, symSize: 0x3C }
  - { offsetInCU: 0x16AB3, offset: 0x16AB3, size: 0x8, addend: 0x0, symName: __ZNSt3__14pairINS_16__deque_iteratorIiPKiRS2_PKS3_lLl1024EEENS1_IiPiRiPS8_lLl1024EEEEC2B8ue170006IS7_SB_LPv0EEEOT_OT0_, symObjAddr: 0xB0A8, symBinAddr: 0x10000E248, symSize: 0x34 }
  - { offsetInCU: 0x16B11, offset: 0x16B11, size: 0x8, addend: 0x0, symName: __ZNSt3__118__unwrap_iter_implINS_16__deque_iteratorIiPKiRS2_PKS3_lLl1024EEELb0EE8__rewrapB8ue170006ES7_S7_, symObjAddr: 0xB150, symBinAddr: 0x10000E2F0, symSize: 0x2C }
  - { offsetInCU: 0x16B3E, offset: 0x16B3E, size: 0x8, addend: 0x0, symName: __ZNSt3__118__unwrap_iter_implINS_16__deque_iteratorIiPiRiPS2_lLl1024EEELb0EE8__rewrapB8ue170006ES5_S5_, symObjAddr: 0xB17C, symBinAddr: 0x10000E31C, symSize: 0x2C }
  - { offsetInCU: 0x16B6B, offset: 0x16B6B, size: 0x8, addend: 0x0, symName: __ZNKSt3__15dequeIiNS_9allocatorIiEEE22__annotate_shrink_backB8ue170006Emm, symObjAddr: 0xB1A8, symBinAddr: 0x10000E348, symSize: 0x60 }
  - { offsetInCU: 0x16BAF, offset: 0x16BAF, size: 0x8, addend: 0x0, symName: __ZNSt3__15dequeIiNS_9allocatorIiEEE25__maybe_remove_back_spareB8ue170006Eb, symObjAddr: 0xB208, symBinAddr: 0x10000E3A8, symSize: 0xE8 }
  - { offsetInCU: 0x16BE4, offset: 0x16BE4, size: 0x8, addend: 0x0, symName: __ZNKSt3__15dequeIiNS_9allocatorIiEEE19__back_spare_blocksB8ue170006Ev, symObjAddr: 0xB2F0, symBinAddr: 0x10000E490, symSize: 0x2C }
  - { offsetInCU: 0x16C0A, offset: 0x16C0A, size: 0x8, addend: 0x0, symName: __ZNSt3__114__split_bufferIPiNS_9allocatorIS1_EEE4backB8ue170006Ev, symObjAddr: 0xB31C, symBinAddr: 0x10000E4BC, symSize: 0x1C }
  - { offsetInCU: 0x16C30, offset: 0x16C30, size: 0x8, addend: 0x0, symName: __ZNSt3__114__split_bufferIPiNS_9allocatorIS1_EEE8pop_backB8ue170006Ev, symObjAddr: 0xB338, symBinAddr: 0x10000E4D8, symSize: 0x2C }
  - { offsetInCU: 0x16C56, offset: 0x16C56, size: 0x8, addend: 0x0, symName: __ZNSt3__15dequeIiNS_9allocatorIiEEE32__assign_with_size_random_accessB8ue170006INS_16__deque_iteratorIiPiRiPS6_lLl1024EEEEEvT_l, symObjAddr: 0xB364, symBinAddr: 0x10000E504, symSize: 0x158 }
  - { offsetInCU: 0x16CDB, offset: 0x16CDB, size: 0x8, addend: 0x0, symName: __ZNKSt3__111__copy_loopINS_17_ClassicAlgPolicyEEclB8ue170006INS_16__deque_iteratorIiPiRiPS5_lLl1024EEES8_Li0EEENS_4pairIT_T0_EESA_SA_SB_, symObjAddr: 0xB834, symBinAddr: 0x10000E9D4, symSize: 0x88 }
  - { offsetInCU: 0x16D43, offset: 0x16D43, size: 0x8, addend: 0x0, symName: __ZNSt3__111__copy_loopINS_17_ClassicAlgPolicyEE12_CopySegmentINS_16__deque_iteratorIiPiRiPS5_lLl1024EEES8_EC1B8ue170006ERS8_, symObjAddr: 0xBAC4, symBinAddr: 0x10000EC64, symSize: 0x34 }
  - { offsetInCU: 0x16D7B, offset: 0x16D7B, size: 0x8, addend: 0x0, symName: __ZNSt3__111__copy_loopINS_17_ClassicAlgPolicyEE12_CopySegmentINS_16__deque_iteratorIiPiRiPS5_lLl1024EEES8_EclB8ue170006ES5_S5_, symObjAddr: 0xBB30, symBinAddr: 0x10000ECD0, symSize: 0x68 }
  - { offsetInCU: 0x16DD6, offset: 0x16DD6, size: 0x8, addend: 0x0, symName: __ZNKSt3__111__copy_loopINS_17_ClassicAlgPolicyEEclB8ue170006IPiNS_16__deque_iteratorIiS4_RiPS4_lLl1024EEELi0EEENS_4pairIT_T0_EESA_SA_SB_, symObjAddr: 0xBD70, symBinAddr: 0x10000EF10, symSize: 0x164 }
  - { offsetInCU: 0x16EAE, offset: 0x16EAE, size: 0x8, addend: 0x0, symName: __ZNSt3__14pairIPiS1_EC1B8ue170006IS1_S1_LPv0EEEOT_OT0_, symObjAddr: 0xBF70, symBinAddr: 0x10000F110, symSize: 0x3C }
  - { offsetInCU: 0x16F0C, offset: 0x16F0C, size: 0x8, addend: 0x0, symName: __ZNSt3__14pairIPiS1_EC2B8ue170006IS1_S1_LPv0EEEOT_OT0_, symObjAddr: 0xBFAC, symBinAddr: 0x10000F14C, symSize: 0x34 }
  - { offsetInCU: 0x16F6A, offset: 0x16F6A, size: 0x8, addend: 0x0, symName: __ZNKSt3__114__copy_trivialclB8ue170006IiiLi0EEENS_4pairIPT_PT0_EES4_S4_S6_, symObjAddr: 0xC11C, symBinAddr: 0x10000F2BC, symSize: 0x48 }
  - { offsetInCU: 0x16FD2, offset: 0x16FD2, size: 0x8, addend: 0x0, symName: __ZNSt3__14pairIPiS1_EC1B8ue170006IRS1_S1_LPv0EEEOT_OT0_, symObjAddr: 0xC280, symBinAddr: 0x10000F420, symSize: 0x3C }
  - { offsetInCU: 0x17030, offset: 0x17030, size: 0x8, addend: 0x0, symName: __ZNSt3__14pairIPiS1_EC2B8ue170006IRS1_S1_LPv0EEEOT_OT0_, symObjAddr: 0xC2BC, symBinAddr: 0x10000F45C, symSize: 0x34 }
  - { offsetInCU: 0x1708E, offset: 0x1708E, size: 0x8, addend: 0x0, symName: __ZNSt3__14pairIPiNS_16__deque_iteratorIiS1_RiPS1_lLl1024EEEEC1B8ue170006IS1_S5_LPv0EEEOT_OT0_, symObjAddr: 0xC2F0, symBinAddr: 0x10000F490, symSize: 0x3C }
  - { offsetInCU: 0x170EC, offset: 0x170EC, size: 0x8, addend: 0x0, symName: __ZNSt3__14pairIPiNS_16__deque_iteratorIiS1_RiPS1_lLl1024EEEEC2B8ue170006IS1_S5_LPv0EEEOT_OT0_, symObjAddr: 0xC32C, symBinAddr: 0x10000F4CC, symSize: 0x34 }
  - { offsetInCU: 0x1714A, offset: 0x1714A, size: 0x8, addend: 0x0, symName: __ZNSt3__111__copy_loopINS_17_ClassicAlgPolicyEE12_CopySegmentINS_16__deque_iteratorIiPiRiPS5_lLl1024EEES8_EC2B8ue170006ERS8_, symObjAddr: 0xC360, symBinAddr: 0x10000F500, symSize: 0x20 }
  - { offsetInCU: 0x17182, offset: 0x17182, size: 0x8, addend: 0x0, symName: __ZNSt3__14pairINS_16__deque_iteratorIiPiRiPS2_lLl1024EEES5_EC1B8ue170006IRS5_S5_LPv0EEEOT_OT0_, symObjAddr: 0xC380, symBinAddr: 0x10000F520, symSize: 0x3C }
  - { offsetInCU: 0x171E0, offset: 0x171E0, size: 0x8, addend: 0x0, symName: __ZNSt3__14pairINS_16__deque_iteratorIiPiRiPS2_lLl1024EEES5_EC2B8ue170006IRS5_S5_LPv0EEEOT_OT0_, symObjAddr: 0xC3BC, symBinAddr: 0x10000F55C, symSize: 0x34 }
  - { offsetInCU: 0x1723E, offset: 0x1723E, size: 0x8, addend: 0x0, symName: __ZNSt3__14pairINS_16__deque_iteratorIiPiRiPS2_lLl1024EEES5_EC1B8ue170006IS5_S5_LPv0EEEOT_OT0_, symObjAddr: 0xC3F0, symBinAddr: 0x10000F590, symSize: 0x3C }
  - { offsetInCU: 0x1729C, offset: 0x1729C, size: 0x8, addend: 0x0, symName: __ZNSt3__14pairINS_16__deque_iteratorIiPiRiPS2_lLl1024EEES5_EC2B8ue170006IS5_S5_LPv0EEEOT_OT0_, symObjAddr: 0xC42C, symBinAddr: 0x10000F5CC, symSize: 0x34 }
  - { offsetInCU: 0x172FA, offset: 0x172FA, size: 0x8, addend: 0x0, symName: __ZNKSt3__15dequeIiNS_9allocatorIiEEE6__sizeB8ue170006Ev, symObjAddr: 0xC558, symBinAddr: 0x10000F6F8, symSize: 0x28 }
  - { offsetInCU: 0x17320, offset: 0x17320, size: 0x8, addend: 0x0, symName: __ZNKSt3__117__compressed_pairImNS_9allocatorIiEEE5firstB8ue170006Ev, symObjAddr: 0xC580, symBinAddr: 0x10000F720, symSize: 0x24 }
  - { offsetInCU: 0x17346, offset: 0x17346, size: 0x8, addend: 0x0, symName: __ZNKSt3__122__compressed_pair_elemImLi0ELb0EE5__getB8ue170006Ev, symObjAddr: 0xC5A4, symBinAddr: 0x10000F744, symSize: 0x14 }
  - { offsetInCU: 0x1736C, offset: 0x1736C, size: 0x8, addend: 0x0, symName: __ZNSt3__15dequeIiNS_9allocatorIiEEE8__appendEm, symObjAddr: 0xC5B8, symBinAddr: 0x10000F758, symSize: 0x1F0 }
  - { offsetInCU: 0x17423, offset: 0x17423, size: 0x8, addend: 0x0, symName: __ZNSt3__116allocator_traitsINS_9allocatorIiEEE9constructB8ue170006IiJEvEEvRS2_PT_DpOT0_, symObjAddr: 0xC7A8, symBinAddr: 0x10000F948, symSize: 0x2C }
  - { offsetInCU: 0x17465, offset: 0x17465, size: 0x8, addend: 0x0, symName: __ZNSt3__19allocatorIiE9constructB8ue170006IiJEEEvPT_DpOT0_, symObjAddr: 0xC7D4, symBinAddr: 0x10000F974, symSize: 0x1C }
  - { offsetInCU: 0x174A7, offset: 0x174A7, size: 0x8, addend: 0x0, symName: __ZNSt3__116allocator_traitsINS_9allocatorIiEEE9constructB8ue170006IiJiEvEEvRS2_PT_DpOT0_, symObjAddr: 0xC7F0, symBinAddr: 0x10000F990, symSize: 0x34 }
  - { offsetInCU: 0x174FE, offset: 0x174FE, size: 0x8, addend: 0x0, symName: __ZNSt3__19allocatorIiE9constructB8ue170006IiJiEEEvPT_DpOT0_, symObjAddr: 0xC824, symBinAddr: 0x10000F9C4, symSize: 0x28 }
  - { offsetInCU: 0x17554, offset: 0x17554, size: 0x8, addend: 0x0, symName: __ZNSt3__15dequeIiNS_9allocatorIiEEE20__add_front_capacityEv, symObjAddr: 0xC84C, symBinAddr: 0x10000F9EC, symSize: 0x3A4 }
  - { offsetInCU: 0x17609, offset: 0x17609, size: 0x8, addend: 0x0, symName: __ZNKSt3__15dequeIiNS_9allocatorIiEEE25__annotate_increase_frontB8ue170006Em, symObjAddr: 0xCBF0, symBinAddr: 0x10000FD90, symSize: 0x40 }
  - { offsetInCU: 0x1763E, offset: 0x1763E, size: 0x8, addend: 0x0, symName: __ZNSt3__116__deque_iteratorIiPiRiPS1_lLl1024EEmmB8ue170006Ev, symObjAddr: 0xCC30, symBinAddr: 0x10000FDD0, symSize: 0x68 }
  - { offsetInCU: 0x17664, offset: 0x17664, size: 0x8, addend: 0x0, symName: __ZNSt3__114__split_bufferIPiNS_9allocatorIS1_EEE10push_frontERKS1_, symObjAddr: 0xCC98, symBinAddr: 0x10000FE38, symSize: 0x25C }
  - { offsetInCU: 0x176DC, offset: 0x176DC, size: 0x8, addend: 0x0, symName: __ZNKSt3__114__split_bufferIPiNS_9allocatorIS1_EEE13__front_spareB8ue170006Ev, symObjAddr: 0xCEF4, symBinAddr: 0x100010094, symSize: 0x28 }
  - { offsetInCU: 0x17702, offset: 0x17702, size: 0x8, addend: 0x0, symName: __ZNKSt3__15dequeIiNS_9allocatorIiEEE23__annotate_shrink_frontB8ue170006Emm, symObjAddr: 0xCF1C, symBinAddr: 0x1000100BC, symSize: 0x70 }
  - { offsetInCU: 0x17746, offset: 0x17746, size: 0x8, addend: 0x0, symName: __ZNSt3__15dequeIiNS_9allocatorIiEEE26__maybe_remove_front_spareB8ue170006Eb, symObjAddr: 0xCF8C, symBinAddr: 0x10001012C, symSize: 0xEC }
  - { offsetInCU: 0x1777B, offset: 0x1777B, size: 0x8, addend: 0x0, symName: __ZNKSt3__15dequeIiNS_9allocatorIiEEE20__front_spare_blocksB8ue170006Ev, symObjAddr: 0xD078, symBinAddr: 0x100010218, symSize: 0x2C }
  - { offsetInCU: 0x177A1, offset: 0x177A1, size: 0x8, addend: 0x0, symName: __ZNKSt3__116__deque_iteratorIiPiRiPS1_lLl1024EEmiB8ue170006El, symObjAddr: 0xD224, symBinAddr: 0x1000103C4, symSize: 0x40 }
  - { offsetInCU: 0x177EF, offset: 0x177EF, size: 0x8, addend: 0x0, symName: __ZNKSt3__111__move_loopINS_17_ClassicAlgPolicyEEclB8ue170006INS_16__deque_iteratorIiPiRiPS5_lLl1024EEES8_Li0EEENS_4pairIT_T0_EESA_SA_SB_, symObjAddr: 0xD4D0, symBinAddr: 0x100010670, symSize: 0x88 }
  - { offsetInCU: 0x17857, offset: 0x17857, size: 0x8, addend: 0x0, symName: __ZNSt3__111__move_loopINS_17_ClassicAlgPolicyEE12_MoveSegmentINS_16__deque_iteratorIiPiRiPS5_lLl1024EEES8_EC1B8ue170006ERS8_, symObjAddr: 0xD6CC, symBinAddr: 0x10001086C, symSize: 0x34 }
  - { offsetInCU: 0x1788F, offset: 0x1788F, size: 0x8, addend: 0x0, symName: __ZNSt3__111__move_loopINS_17_ClassicAlgPolicyEE12_MoveSegmentINS_16__deque_iteratorIiPiRiPS5_lLl1024EEES8_EclB8ue170006ES5_S5_, symObjAddr: 0xD700, symBinAddr: 0x1000108A0, symSize: 0x68 }
  - { offsetInCU: 0x178D1, offset: 0x178D1, size: 0x8, addend: 0x0, symName: __ZNKSt3__111__move_loopINS_17_ClassicAlgPolicyEEclB8ue170006IPiNS_16__deque_iteratorIiS4_RiPS4_lLl1024EEELi0EEENS_4pairIT_T0_EESA_SA_SB_, symObjAddr: 0xD8E0, symBinAddr: 0x100010A80, symSize: 0x164 }
  - { offsetInCU: 0x17990, offset: 0x17990, size: 0x8, addend: 0x0, symName: __ZNKSt3__114__move_trivialclB8ue170006IiiLi0EEENS_4pairIPT_PT0_EES4_S4_S6_, symObjAddr: 0xDB80, symBinAddr: 0x100010D20, symSize: 0x48 }
  - { offsetInCU: 0x179F8, offset: 0x179F8, size: 0x8, addend: 0x0, symName: __ZNSt3__111__move_loopINS_17_ClassicAlgPolicyEE12_MoveSegmentINS_16__deque_iteratorIiPiRiPS5_lLl1024EEES8_EC2B8ue170006ERS8_, symObjAddr: 0xDBC8, symBinAddr: 0x100010D68, symSize: 0x20 }
  - { offsetInCU: 0x17A3A, offset: 0x17A3A, size: 0x8, addend: 0x0, symName: __ZNKSt3__120__move_backward_loopINS_17_ClassicAlgPolicyEEclB8ue170006INS_16__deque_iteratorIiPiRiPS5_lLl1024EEES8_Li0EEENS_4pairIT_T0_EESA_SA_SB_, symObjAddr: 0xDDDC, symBinAddr: 0x100010F7C, symSize: 0x230 }
  - { offsetInCU: 0x17ADE, offset: 0x17ADE, size: 0x8, addend: 0x0, symName: __ZNKSt3__120__move_backward_loopINS_17_ClassicAlgPolicyEEclB8ue170006IPiNS_16__deque_iteratorIiS4_RiPS4_lLl1024EEELi0EEENS_4pairIT_T0_EESA_SA_SB_, symObjAddr: 0xE1BC, symBinAddr: 0x10001135C, symSize: 0x19C }
  - { offsetInCU: 0x17BAB, offset: 0x17BAB, size: 0x8, addend: 0x0, symName: __ZNSt3__14pairIPiNS_16__deque_iteratorIiS1_RiPS1_lLl1024EEEEC1B8ue170006IRS1_RS5_LPv0EEEOT_OT0_, symObjAddr: 0xE3D4, symBinAddr: 0x100011574, symSize: 0x3C }
  - { offsetInCU: 0x17C09, offset: 0x17C09, size: 0x8, addend: 0x0, symName: __ZNSt3__14pairIPiNS_16__deque_iteratorIiS1_RiPS1_lLl1024EEEEC2B8ue170006IRS1_RS5_LPv0EEEOT_OT0_, symObjAddr: 0xE410, symBinAddr: 0x1000115B0, symSize: 0x34 }
  - { offsetInCU: 0x17C67, offset: 0x17C67, size: 0x8, addend: 0x0, symName: __ZNKSt3__123__move_backward_trivialclB8ue170006IiiLi0EEENS_4pairIPT_PT0_EES4_S4_S6_, symObjAddr: 0xE53C, symBinAddr: 0x1000116DC, symSize: 0x48 }
  - { offsetInCU: 0x17CCF, offset: 0x17CCF, size: 0x8, addend: 0x0, symName: __ZNSt3__14pairIPiS1_EC1B8ue170006IRS1_S4_LPv0EEEOT_OT0_, symObjAddr: 0xE64C, symBinAddr: 0x1000117EC, symSize: 0x3C }
  - { offsetInCU: 0x17D2D, offset: 0x17D2D, size: 0x8, addend: 0x0, symName: __ZNSt3__14pairIPiS1_EC2B8ue170006IRS1_S4_LPv0EEEOT_OT0_, symObjAddr: 0xE688, symBinAddr: 0x100011828, symSize: 0x34 }
  - { offsetInCU: 0x17D8B, offset: 0x17D8B, size: 0x8, addend: 0x0, symName: __ZNSt3__14pairINS_16__deque_iteratorIiPiRiPS2_lLl1024EEES5_EC1B8ue170006IRS5_S8_LPv0EEEOT_OT0_, symObjAddr: 0xE6BC, symBinAddr: 0x10001185C, symSize: 0x3C }
  - { offsetInCU: 0x17DE9, offset: 0x17DE9, size: 0x8, addend: 0x0, symName: __ZNSt3__14pairINS_16__deque_iteratorIiPiRiPS2_lLl1024EEES5_EC2B8ue170006IRS5_S8_LPv0EEEOT_OT0_, symObjAddr: 0xE6F8, symBinAddr: 0x100011898, symSize: 0x34 }
  - { offsetInCU: 0x17E47, offset: 0x17E47, size: 0x8, addend: 0x0, symName: __ZNSt3__116__deque_iteratorIiPiRiPS1_lLl1024EEmIB8ue170006El, symObjAddr: 0xE72C, symBinAddr: 0x1000118CC, symSize: 0x34 }
  - { offsetInCU: 0x17E7C, offset: 0x17E7C, size: 0x8, addend: 0x0, symName: __ZNSt3__116__deque_iteratorIiPKiRS1_PKS2_lLl1024EEC2B8ue170006IPiRiPS8_EERKNS0_IiT_T0_T1_lLl1024EEEPNS_9enable_ifIXsr14is_convertibleISB_S2_EE5valueEvE4typeE, symObjAddr: 0xE760, symBinAddr: 0x100011900, symSize: 0x34 }
  - { offsetInCU: 0x17EDC, offset: 0x17EDC, size: 0x8, addend: 0x0, symName: __ZNSt3__15dequeIiNS_9allocatorIiEEE20__add_front_capacityEm, symObjAddr: 0xE794, symBinAddr: 0x100011934, symSize: 0x62C }
  - { offsetInCU: 0x17FDD, offset: 0x17FDD, size: 0x8, addend: 0x0, symName: __ZNSt3__114pointer_traitsIPKiE10pointer_toB8ue170006ERS1_, symObjAddr: 0xEDC0, symBinAddr: 0x100011F60, symSize: 0x14 }
  - { offsetInCU: 0x18000, offset: 0x18000, size: 0x8, addend: 0x0, symName: __ZNSt3__15dequeIiNS_9allocatorIiEEE35__move_construct_backward_and_checkENS_16__deque_iteratorIiPiRiPS5_lLl1024EEES8_S8_RPKi, symObjAddr: 0xEDD4, symBinAddr: 0x100011F74, symSize: 0x208 }
  - { offsetInCU: 0x180C2, offset: 0x180C2, size: 0x8, addend: 0x0, symName: __ZNSt3__15dequeIiNS_9allocatorIiEEE16__move_and_checkENS_16__deque_iteratorIiPiRiPS5_lLl1024EEES8_S8_RPKi, symObjAddr: 0xEFDC, symBinAddr: 0x10001217C, symSize: 0x1A4 }
  - { offsetInCU: 0x18176, offset: 0x18176, size: 0x8, addend: 0x0, symName: __ZNSt3__15dequeIiNS_9allocatorIiEEE26__move_construct_and_checkENS_16__deque_iteratorIiPiRiPS5_lLl1024EEES8_S8_RPKi, symObjAddr: 0xF180, symBinAddr: 0x100012320, symSize: 0x1F0 }
  - { offsetInCU: 0x18238, offset: 0x18238, size: 0x8, addend: 0x0, symName: __ZNSt3__15dequeIiNS_9allocatorIiEEE25__move_backward_and_checkENS_16__deque_iteratorIiPiRiPS5_lLl1024EEES8_S8_RPKi, symObjAddr: 0xF370, symBinAddr: 0x100012510, symSize: 0x1BC }
  - { offsetInCU: 0x182EC, offset: 0x182EC, size: 0x8, addend: 0x0, symName: __ZNSt3__116__deque_iteratorIiPKiRS1_PKS2_lLl1024EEmIB8ue170006El, symObjAddr: 0xF52C, symBinAddr: 0x1000126CC, symSize: 0x34 }
  - { offsetInCU: 0x18321, offset: 0x18321, size: 0x8, addend: 0x0, symName: __ZNSt3__15dequeIiNS_9allocatorIiEEE22__insert_bidirectionalB8ue170006INS_16__deque_iteratorIiPiRiPS6_lLl1024EEEEES9_NS5_IiPKiRSA_PKSB_lLl1024EEET_SG_m, symObjAddr: 0xF620, symBinAddr: 0x1000127C0, symSize: 0x6BC }
  - { offsetInCU: 0x1851B, offset: 0x1851B, size: 0x8, addend: 0x0, symName: __ZNKSt3__120__copy_backward_loopINS_17_ClassicAlgPolicyEEclB8ue170006INS_16__deque_iteratorIiPiRiPS5_lLl1024EEES8_Li0EEENS_4pairIT_T0_EESA_SA_SB_, symObjAddr: 0xFF48, symBinAddr: 0x1000130E8, symSize: 0x230 }
  - { offsetInCU: 0x185BF, offset: 0x185BF, size: 0x8, addend: 0x0, symName: __ZNKSt3__120__copy_backward_loopINS_17_ClassicAlgPolicyEEclB8ue170006IPiNS_16__deque_iteratorIiS4_RiPS4_lLl1024EEELi0EEENS_4pairIT_T0_EESA_SA_SB_, symObjAddr: 0x102F0, symBinAddr: 0x100013490, symSize: 0x1A4 }
  - { offsetInCU: 0x18696, offset: 0x18696, size: 0x8, addend: 0x0, symName: __ZNKSt3__123__copy_backward_trivialclB8ue170006IiiLi0EEENS_4pairIPT_PT0_EES4_S4_S6_, symObjAddr: 0x105D0, symBinAddr: 0x100013770, symSize: 0x48 }
  - { offsetInCU: 0x186FE, offset: 0x186FE, size: 0x8, addend: 0x0, symName: __ZNSt12out_of_rangeC1B8ue170006EPKc, symObjAddr: 0x1067C, symBinAddr: 0x10001381C, symSize: 0x34 }
  - { offsetInCU: 0x18736, offset: 0x18736, size: 0x8, addend: 0x0, symName: __ZNSt12out_of_rangeC2B8ue170006EPKc, symObjAddr: 0x106B0, symBinAddr: 0x100013850, symSize: 0x4C }
  - { offsetInCU: 0x1876E, offset: 0x1876E, size: 0x8, addend: 0x0, symName: __ZNKSt3__16__lessIvvEclB8ue170006IiiEEbRKT_RKT0_, symObjAddr: 0x11144, symBinAddr: 0x1000142E4, symSize: 0x34 }
  - { offsetInCU: 0x187C2, offset: 0x187C2, size: 0x8, addend: 0x0, symName: __ZNSt3__18_IterOpsINS_17_ClassicAlgPolicyEE9iter_swapB8ue170006IRNS_16__deque_iteratorIiPiRiPS5_lLl1024EEES9_EEvOT_OT0_, symObjAddr: 0x11178, symBinAddr: 0x100014318, symSize: 0x4C }
  - { offsetInCU: 0x18805, offset: 0x18805, size: 0x8, addend: 0x0, symName: __ZNSt3__18_IterOpsINS_17_ClassicAlgPolicyEE9iter_swapB8ue170006IRNS_16__deque_iteratorIiPiRiPS5_lLl1024EEES8_EEvOT_OT0_, symObjAddr: 0x119AC, symBinAddr: 0x100014B4C, symSize: 0x4C }
  - { offsetInCU: 0x18848, offset: 0x18848, size: 0x8, addend: 0x0, symName: __ZNSt3__18_IterOpsINS_17_ClassicAlgPolicyEE11__iter_moveB8ue170006IRNS_16__deque_iteratorIiPiRiPS5_lLl1024EEEEENS_9enable_ifIXsr12is_referenceIDTdeclsr3stdE7declvalIRT_EEEEE5valueEDTclsr3stdE4movedeclsr3stdE7declvalISC_EEEEE4typeEOSB_, symObjAddr: 0x12B8C, symBinAddr: 0x100015D2C, symSize: 0x28 }
  - { offsetInCU: 0x18874, offset: 0x18874, size: 0x8, addend: 0x0, symName: __ZNSt3__18_IterOpsINS_17_ClassicAlgPolicyEE25__validate_iter_referenceB8ue170006IRNS_16__deque_iteratorIiPiRiPS5_lLl1024EEEEEvv, symObjAddr: 0x12BB4, symBinAddr: 0x100015D54, symSize: 0x4 }
  - { offsetInCU: 0x18892, offset: 0x18892, size: 0x8, addend: 0x0, symName: __ZNSt3__18_IterOpsINS_17_ClassicAlgPolicyEE4nextB8ue170006INS_16__deque_iteratorIiPiRiPS5_lLl1024EEEEET_S9_S9_, symObjAddr: 0x12BB8, symBinAddr: 0x100015D58, symSize: 0x2C }
  - { offsetInCU: 0x188C8, offset: 0x188C8, size: 0x8, addend: 0x0, symName: __ZNSt3__18_IterOpsINS_17_ClassicAlgPolicyEE9iter_swapB8ue170006INS_16__deque_iteratorIiPiRiPS5_lLl1024EEES8_EEvOT_OT0_, symObjAddr: 0x13F18, symBinAddr: 0x1000170B8, symSize: 0x4C }
  - { offsetInCU: 0x18929, offset: 0x18929, size: 0x8, addend: 0x0, symName: __ZNSt3__14pairINS_16__deque_iteratorIiPiRiPS2_lLl1024EEEbEC1B8ue170006IRS5_RbLPv0EEEOT_OT0_, symObjAddr: 0x13F80, symBinAddr: 0x100017120, symSize: 0x3C }
  - { offsetInCU: 0x18987, offset: 0x18987, size: 0x8, addend: 0x0, symName: __ZNSt3__14pairINS_16__deque_iteratorIiPiRiPS2_lLl1024EEEbEC2B8ue170006IRS5_RbLPv0EEEOT_OT0_, symObjAddr: 0x13FBC, symBinAddr: 0x10001715C, symSize: 0x38 }
...
